

Microchip MPLAB XC8 Assembler V2.10 build 88905656 
                                                                                               Wed Apr 22 20:21:32 2020

Microchip MPLAB XC8 C Compiler v2.10 (Free license) build 20190730164152 Og1 
     1                           	processor	16F18325
     2                           	opt	pw 120
     3                           	opt	flic
     4                           	psect	nvCOMMON,global,class=COMMON,space=1,delta=1
     5                           	psect	cinit,global,class=CODE,merge=1,delta=2
     6                           	psect	bssCOMMON,global,class=COMMON,space=1,delta=1
     7                           	psect	cstackCOMMON,global,class=COMMON,space=1,delta=1
     8                           	psect	maintext,global,class=CODE,merge=1,split=1,delta=2
     9                           	psect	text1,local,class=CODE,merge=1,delta=2
    10                           	psect	text2,local,class=CODE,merge=1,delta=2
    11                           	psect	text3,local,class=CODE,merge=1,delta=2
    12                           	psect	text4,local,class=CODE,merge=1,delta=2
    13                           	psect	text5,local,class=CODE,merge=1,delta=2
    14                           	psect	text6,local,class=CODE,merge=1,delta=2
    15                           	psect	text7,local,class=CODE,merge=1,delta=2
    16                           	psect	text8,local,class=CODE,merge=1,delta=2
    17                           	psect	text9,local,class=CODE,merge=1,delta=2
    18                           	psect	intentry,global,class=CODE,delta=2
    19                           	psect	text11,local,class=CODE,merge=1,delta=2
    20                           	psect	text12,local,class=CODE,merge=1,delta=2
    21                           	psect	text13,local,class=CODE,merge=1,delta=2
    22                           	dabs	1,0x7E,2
    23  0000                     
    24                           ; Version 2.10
    25                           ; Generated 31/07/2019 GMT
    26                           ; 
    27                           ; Copyright © 2019, Microchip Technology Inc. and its subsidiaries ("Microchip")
    28                           ; All rights reserved.
    29                           ; 
    30                           ; This software is developed by Microchip Technology Inc. and its subsidiaries ("Microch
      +                          ip").
    31                           ; 
    32                           ; Redistribution and use in source and binary forms, with or without modification, are
    33                           ; permitted provided that the following conditions are met:
    34                           ; 
    35                           ;     1. Redistributions of source code must retain the above copyright notice, this lis
      +                          t of
    36                           ;        conditions and the following disclaimer.
    37                           ; 
    38                           ;     2. Redistributions in binary form must reproduce the above copyright notice, this 
      +                          list
    39                           ;        of conditions and the following disclaimer in the documentation and/or other
    40                           ;        materials provided with the distribution.
    41                           ; 
    42                           ;     3. Microchip's name may not be used to endorse or promote products derived from th
      +                          is
    43                           ;        software without specific prior written permission.
    44                           ; 
    45                           ; THIS SOFTWARE IS PROVIDED BY MICROCHIP "AS IS" AND ANY EXPRESS OR IMPLIED WARRANTIES,
    46                           ; INCLUDING, BUT NOT LIMITED TO, THE IMPLIED WARRANTIES OF MERCHANTABILITY AND FITNESS F
      +                          OR
    47                           ; PURPOSE ARE DISCLAIMED.  IN NO EVENT SHALL MICROCHIP BE LIABLE FOR ANY DIRECT, INDIREC
      +                          T,
    48                           ; INCIDENTAL, SPECIAL, EXEMPLARY, OR CONSEQUENTIAL DAMAGES (INCLUDING BUT NOT LIMITED TO
    49                           ; PROCUREMENT OF SUBSTITUTE GOODS OR SERVICES; LOSS OF USE, DATA OR PROFITS; OR BUSINESS
    50                           ; INTERRUPTION) HOWSOEVER CAUSED AND ON ANY THEORY OF LIABILITY, WHETHER IN CONTRACT, ST
      +                          RICT
    51                           ; LIABILITY, OR TORT (INCLUDING NEGLIGENCE OR OTHERWISE) ARISING IN ANY WAY OUT OF THE U
      +                          SE OF
    52                           ; THIS SOFTWARE, EVEN IF ADVISED OF THE POSSIBILITY OF SUCH DAMAGE.
    53                           ; 
    54                           ; 
    55                           ; Code-generator required, PIC16F18325 Definitions
    56                           ; 
    57                           ; SFR Addresses
    58  0000                     	;# 
    59  0001                     	;# 
    60  0002                     	;# 
    61  0003                     	;# 
    62  0004                     	;# 
    63  0005                     	;# 
    64  0006                     	;# 
    65  0007                     	;# 
    66  0008                     	;# 
    67  0009                     	;# 
    68  000A                     	;# 
    69  000B                     	;# 
    70  000C                     	;# 
    71  000E                     	;# 
    72  0010                     	;# 
    73  0011                     	;# 
    74  0012                     	;# 
    75  0013                     	;# 
    76  0014                     	;# 
    77  0015                     	;# 
    78  0015                     	;# 
    79  0016                     	;# 
    80  0016                     	;# 
    81  0017                     	;# 
    82  0018                     	;# 
    83  0019                     	;# 
    84  0019                     	;# 
    85  001A                     	;# 
    86  001B                     	;# 
    87  001C                     	;# 
    88  001D                     	;# 
    89  001E                     	;# 
    90  001F                     	;# 
    91  008C                     	;# 
    92  008E                     	;# 
    93  0090                     	;# 
    94  0091                     	;# 
    95  0092                     	;# 
    96  0093                     	;# 
    97  0094                     	;# 
    98  0097                     	;# 
    99  009B                     	;# 
   100  009B                     	;# 
   101  009C                     	;# 
   102  009D                     	;# 
   103  009E                     	;# 
   104  009F                     	;# 
   105  010C                     	;# 
   106  010E                     	;# 
   107  0111                     	;# 
   108  0112                     	;# 
   109  0113                     	;# 
   110  0114                     	;# 
   111  0115                     	;# 
   112  0116                     	;# 
   113  0117                     	;# 
   114  0118                     	;# 
   115  0119                     	;# 
   116  018C                     	;# 
   117  018E                     	;# 
   118  0197                     	;# 
   119  0199                     	;# 
   120  0199                     	;# 
   121  0199                     	;# 
   122  019A                     	;# 
   123  019A                     	;# 
   124  019A                     	;# 
   125  019B                     	;# 
   126  019B                     	;# 
   127  019B                     	;# 
   128  019B                     	;# 
   129  019B                     	;# 
   130  019C                     	;# 
   131  019C                     	;# 
   132  019C                     	;# 
   133  019D                     	;# 
   134  019D                     	;# 
   135  019D                     	;# 
   136  019E                     	;# 
   137  019E                     	;# 
   138  019E                     	;# 
   139  019F                     	;# 
   140  019F                     	;# 
   141  019F                     	;# 
   142  019F                     	;# 
   143  019F                     	;# 
   144  020C                     	;# 
   145  020E                     	;# 
   146  0211                     	;# 
   147  0211                     	;# 
   148  0212                     	;# 
   149  0212                     	;# 
   150  0213                     	;# 
   151  0213                     	;# 
   152  0214                     	;# 
   153  0214                     	;# 
   154  0215                     	;# 
   155  0215                     	;# 
   156  0215                     	;# 
   157  0215                     	;# 
   158  0216                     	;# 
   159  0216                     	;# 
   160  0217                     	;# 
   161  0217                     	;# 
   162  0219                     	;# 
   163  021A                     	;# 
   164  021B                     	;# 
   165  021C                     	;# 
   166  021D                     	;# 
   167  021D                     	;# 
   168  021E                     	;# 
   169  021F                     	;# 
   170  028C                     	;# 
   171  028E                     	;# 
   172  0291                     	;# 
   173  0291                     	;# 
   174  0292                     	;# 
   175  0293                     	;# 
   176  0294                     	;# 
   177  0295                     	;# 
   178  0295                     	;# 
   179  0296                     	;# 
   180  0297                     	;# 
   181  0298                     	;# 
   182  029F                     	;# 
   183  030C                     	;# 
   184  030E                     	;# 
   185  0311                     	;# 
   186  0311                     	;# 
   187  0312                     	;# 
   188  0313                     	;# 
   189  0314                     	;# 
   190  0315                     	;# 
   191  0315                     	;# 
   192  0316                     	;# 
   193  0317                     	;# 
   194  0318                     	;# 
   195  038C                     	;# 
   196  038E                     	;# 
   197  0391                     	;# 
   198  0392                     	;# 
   199  0393                     	;# 
   200  0397                     	;# 
   201  0398                     	;# 
   202  0399                     	;# 
   203  039A                     	;# 
   204  039C                     	;# 
   205  039D                     	;# 
   206  039E                     	;# 
   207  039F                     	;# 
   208  0411                     	;# 
   209  0411                     	;# 
   210  0412                     	;# 
   211  0413                     	;# 
   212  0414                     	;# 
   213  0415                     	;# 
   214  0416                     	;# 
   215  0417                     	;# 
   216  0418                     	;# 
   217  0418                     	;# 
   218  0419                     	;# 
   219  041A                     	;# 
   220  041B                     	;# 
   221  041C                     	;# 
   222  041D                     	;# 
   223  041E                     	;# 
   224  041F                     	;# 
   225  0498                     	;# 
   226  0498                     	;# 
   227  0499                     	;# 
   228  049A                     	;# 
   229  049B                     	;# 
   230  049B                     	;# 
   231  049C                     	;# 
   232  049D                     	;# 
   233  049E                     	;# 
   234  049F                     	;# 
   235  0617                     	;# 
   236  0618                     	;# 
   237  0619                     	;# 
   238  0619                     	;# 
   239  061A                     	;# 
   240  061B                     	;# 
   241  061C                     	;# 
   242  061C                     	;# 
   243  061F                     	;# 
   244  0691                     	;# 
   245  0692                     	;# 
   246  0693                     	;# 
   247  0694                     	;# 
   248  0695                     	;# 
   249  0696                     	;# 
   250  0697                     	;# 
   251  0698                     	;# 
   252  0699                     	;# 
   253  0711                     	;# 
   254  0712                     	;# 
   255  0713                     	;# 
   256  0714                     	;# 
   257  0715                     	;# 
   258  0716                     	;# 
   259  0717                     	;# 
   260  0718                     	;# 
   261  0719                     	;# 
   262  0891                     	;# 
   263  0891                     	;# 
   264  0891                     	;# 
   265  0891                     	;# 
   266  0891                     	;# 
   267  0891                     	;# 
   268  0892                     	;# 
   269  0892                     	;# 
   270  0892                     	;# 
   271  0893                     	;# 
   272  0893                     	;# 
   273  0893                     	;# 
   274  0893                     	;# 
   275  0893                     	;# 
   276  0893                     	;# 
   277  0894                     	;# 
   278  0894                     	;# 
   279  0894                     	;# 
   280  0895                     	;# 
   281  0895                     	;# 
   282  0895                     	;# 
   283  0896                     	;# 
   284  0896                     	;# 
   285  0896                     	;# 
   286  089B                     	;# 
   287  0911                     	;# 
   288  0912                     	;# 
   289  0913                     	;# 
   290  0914                     	;# 
   291  0915                     	;# 
   292  0916                     	;# 
   293  0918                     	;# 
   294  0919                     	;# 
   295  091A                     	;# 
   296  091B                     	;# 
   297  091C                     	;# 
   298  091D                     	;# 
   299  091E                     	;# 
   300  091F                     	;# 
   301  0E0F                     	;# 
   302  0E10                     	;# 
   303  0E11                     	;# 
   304  0E12                     	;# 
   305  0E13                     	;# 
   306  0E14                     	;# 
   307  0E15                     	;# 
   308  0E16                     	;# 
   309  0E17                     	;# 
   310  0E18                     	;# 
   311  0E19                     	;# 
   312  0E1A                     	;# 
   313  0E1B                     	;# 
   314  0E1C                     	;# 
   315  0E1D                     	;# 
   316  0E1E                     	;# 
   317  0E1F                     	;# 
   318  0E20                     	;# 
   319  0E21                     	;# 
   320  0E22                     	;# 
   321  0E24                     	;# 
   322  0E25                     	;# 
   323  0E28                     	;# 
   324  0E29                     	;# 
   325  0E2A                     	;# 
   326  0E2B                     	;# 
   327  0E2C                     	;# 
   328  0E2D                     	;# 
   329  0E2E                     	;# 
   330  0E2F                     	;# 
   331  0E90                     	;# 
   332  0E91                     	;# 
   333  0E92                     	;# 
   334  0E94                     	;# 
   335  0E95                     	;# 
   336  0EA0                     	;# 
   337  0EA1                     	;# 
   338  0EA2                     	;# 
   339  0EA3                     	;# 
   340  0EA4                     	;# 
   341  0EA5                     	;# 
   342  0F0F                     	;# 
   343  0F10                     	;# 
   344  0F11                     	;# 
   345  0F12                     	;# 
   346  0F13                     	;# 
   347  0F14                     	;# 
   348  0F15                     	;# 
   349  0F16                     	;# 
   350  0F17                     	;# 
   351  0F18                     	;# 
   352  0F19                     	;# 
   353  0F1A                     	;# 
   354  0F1B                     	;# 
   355  0F1C                     	;# 
   356  0F1D                     	;# 
   357  0F1E                     	;# 
   358  0F1F                     	;# 
   359  0F20                     	;# 
   360  0F21                     	;# 
   361  0F22                     	;# 
   362  0F23                     	;# 
   363  0F24                     	;# 
   364  0F25                     	;# 
   365  0F26                     	;# 
   366  0F27                     	;# 
   367  0F28                     	;# 
   368  0F29                     	;# 
   369  0F2A                     	;# 
   370  0F2B                     	;# 
   371  0F2C                     	;# 
   372  0F2D                     	;# 
   373  0F2E                     	;# 
   374  0F2F                     	;# 
   375  0F30                     	;# 
   376  0F31                     	;# 
   377  0F32                     	;# 
   378  0F33                     	;# 
   379  0F34                     	;# 
   380  0F35                     	;# 
   381  0F36                     	;# 
   382  0F37                     	;# 
   383  0FE4                     	;# 
   384  0FE5                     	;# 
   385  0FE6                     	;# 
   386  0FE7                     	;# 
   387  0FE8                     	;# 
   388  0FE9                     	;# 
   389  0FEA                     	;# 
   390  0FEB                     	;# 
   391  0FED                     	;# 
   392  0FEE                     	;# 
   393  0FEF                     	;# 
   394  0000                     	;# 
   395  0001                     	;# 
   396  0002                     	;# 
   397  0003                     	;# 
   398  0004                     	;# 
   399  0005                     	;# 
   400  0006                     	;# 
   401  0007                     	;# 
   402  0008                     	;# 
   403  0009                     	;# 
   404  000A                     	;# 
   405  000B                     	;# 
   406  000C                     	;# 
   407  000E                     	;# 
   408  0010                     	;# 
   409  0011                     	;# 
   410  0012                     	;# 
   411  0013                     	;# 
   412  0014                     	;# 
   413  0015                     	;# 
   414  0015                     	;# 
   415  0016                     	;# 
   416  0016                     	;# 
   417  0017                     	;# 
   418  0018                     	;# 
   419  0019                     	;# 
   420  0019                     	;# 
   421  001A                     	;# 
   422  001B                     	;# 
   423  001C                     	;# 
   424  001D                     	;# 
   425  001E                     	;# 
   426  001F                     	;# 
   427  008C                     	;# 
   428  008E                     	;# 
   429  0090                     	;# 
   430  0091                     	;# 
   431  0092                     	;# 
   432  0093                     	;# 
   433  0094                     	;# 
   434  0097                     	;# 
   435  009B                     	;# 
   436  009B                     	;# 
   437  009C                     	;# 
   438  009D                     	;# 
   439  009E                     	;# 
   440  009F                     	;# 
   441  010C                     	;# 
   442  010E                     	;# 
   443  0111                     	;# 
   444  0112                     	;# 
   445  0113                     	;# 
   446  0114                     	;# 
   447  0115                     	;# 
   448  0116                     	;# 
   449  0117                     	;# 
   450  0118                     	;# 
   451  0119                     	;# 
   452  018C                     	;# 
   453  018E                     	;# 
   454  0197                     	;# 
   455  0199                     	;# 
   456  0199                     	;# 
   457  0199                     	;# 
   458  019A                     	;# 
   459  019A                     	;# 
   460  019A                     	;# 
   461  019B                     	;# 
   462  019B                     	;# 
   463  019B                     	;# 
   464  019B                     	;# 
   465  019B                     	;# 
   466  019C                     	;# 
   467  019C                     	;# 
   468  019C                     	;# 
   469  019D                     	;# 
   470  019D                     	;# 
   471  019D                     	;# 
   472  019E                     	;# 
   473  019E                     	;# 
   474  019E                     	;# 
   475  019F                     	;# 
   476  019F                     	;# 
   477  019F                     	;# 
   478  019F                     	;# 
   479  019F                     	;# 
   480  020C                     	;# 
   481  020E                     	;# 
   482  0211                     	;# 
   483  0211                     	;# 
   484  0212                     	;# 
   485  0212                     	;# 
   486  0213                     	;# 
   487  0213                     	;# 
   488  0214                     	;# 
   489  0214                     	;# 
   490  0215                     	;# 
   491  0215                     	;# 
   492  0215                     	;# 
   493  0215                     	;# 
   494  0216                     	;# 
   495  0216                     	;# 
   496  0217                     	;# 
   497  0217                     	;# 
   498  0219                     	;# 
   499  021A                     	;# 
   500  021B                     	;# 
   501  021C                     	;# 
   502  021D                     	;# 
   503  021D                     	;# 
   504  021E                     	;# 
   505  021F                     	;# 
   506  028C                     	;# 
   507  028E                     	;# 
   508  0291                     	;# 
   509  0291                     	;# 
   510  0292                     	;# 
   511  0293                     	;# 
   512  0294                     	;# 
   513  0295                     	;# 
   514  0295                     	;# 
   515  0296                     	;# 
   516  0297                     	;# 
   517  0298                     	;# 
   518  029F                     	;# 
   519  030C                     	;# 
   520  030E                     	;# 
   521  0311                     	;# 
   522  0311                     	;# 
   523  0312                     	;# 
   524  0313                     	;# 
   525  0314                     	;# 
   526  0315                     	;# 
   527  0315                     	;# 
   528  0316                     	;# 
   529  0317                     	;# 
   530  0318                     	;# 
   531  038C                     	;# 
   532  038E                     	;# 
   533  0391                     	;# 
   534  0392                     	;# 
   535  0393                     	;# 
   536  0397                     	;# 
   537  0398                     	;# 
   538  0399                     	;# 
   539  039A                     	;# 
   540  039C                     	;# 
   541  039D                     	;# 
   542  039E                     	;# 
   543  039F                     	;# 
   544  0411                     	;# 
   545  0411                     	;# 
   546  0412                     	;# 
   547  0413                     	;# 
   548  0414                     	;# 
   549  0415                     	;# 
   550  0416                     	;# 
   551  0417                     	;# 
   552  0418                     	;# 
   553  0418                     	;# 
   554  0419                     	;# 
   555  041A                     	;# 
   556  041B                     	;# 
   557  041C                     	;# 
   558  041D                     	;# 
   559  041E                     	;# 
   560  041F                     	;# 
   561  0498                     	;# 
   562  0498                     	;# 
   563  0499                     	;# 
   564  049A                     	;# 
   565  049B                     	;# 
   566  049B                     	;# 
   567  049C                     	;# 
   568  049D                     	;# 
   569  049E                     	;# 
   570  049F                     	;# 
   571  0617                     	;# 
   572  0618                     	;# 
   573  0619                     	;# 
   574  0619                     	;# 
   575  061A                     	;# 
   576  061B                     	;# 
   577  061C                     	;# 
   578  061C                     	;# 
   579  061F                     	;# 
   580  0691                     	;# 
   581  0692                     	;# 
   582  0693                     	;# 
   583  0694                     	;# 
   584  0695                     	;# 
   585  0696                     	;# 
   586  0697                     	;# 
   587  0698                     	;# 
   588  0699                     	;# 
   589  0711                     	;# 
   590  0712                     	;# 
   591  0713                     	;# 
   592  0714                     	;# 
   593  0715                     	;# 
   594  0716                     	;# 
   595  0717                     	;# 
   596  0718                     	;# 
   597  0719                     	;# 
   598  0891                     	;# 
   599  0891                     	;# 
   600  0891                     	;# 
   601  0891                     	;# 
   602  0891                     	;# 
   603  0891                     	;# 
   604  0892                     	;# 
   605  0892                     	;# 
   606  0892                     	;# 
   607  0893                     	;# 
   608  0893                     	;# 
   609  0893                     	;# 
   610  0893                     	;# 
   611  0893                     	;# 
   612  0893                     	;# 
   613  0894                     	;# 
   614  0894                     	;# 
   615  0894                     	;# 
   616  0895                     	;# 
   617  0895                     	;# 
   618  0895                     	;# 
   619  0896                     	;# 
   620  0896                     	;# 
   621  0896                     	;# 
   622  089B                     	;# 
   623  0911                     	;# 
   624  0912                     	;# 
   625  0913                     	;# 
   626  0914                     	;# 
   627  0915                     	;# 
   628  0916                     	;# 
   629  0918                     	;# 
   630  0919                     	;# 
   631  091A                     	;# 
   632  091B                     	;# 
   633  091C                     	;# 
   634  091D                     	;# 
   635  091E                     	;# 
   636  091F                     	;# 
   637  0E0F                     	;# 
   638  0E10                     	;# 
   639  0E11                     	;# 
   640  0E12                     	;# 
   641  0E13                     	;# 
   642  0E14                     	;# 
   643  0E15                     	;# 
   644  0E16                     	;# 
   645  0E17                     	;# 
   646  0E18                     	;# 
   647  0E19                     	;# 
   648  0E1A                     	;# 
   649  0E1B                     	;# 
   650  0E1C                     	;# 
   651  0E1D                     	;# 
   652  0E1E                     	;# 
   653  0E1F                     	;# 
   654  0E20                     	;# 
   655  0E21                     	;# 
   656  0E22                     	;# 
   657  0E24                     	;# 
   658  0E25                     	;# 
   659  0E28                     	;# 
   660  0E29                     	;# 
   661  0E2A                     	;# 
   662  0E2B                     	;# 
   663  0E2C                     	;# 
   664  0E2D                     	;# 
   665  0E2E                     	;# 
   666  0E2F                     	;# 
   667  0E90                     	;# 
   668  0E91                     	;# 
   669  0E92                     	;# 
   670  0E94                     	;# 
   671  0E95                     	;# 
   672  0EA0                     	;# 
   673  0EA1                     	;# 
   674  0EA2                     	;# 
   675  0EA3                     	;# 
   676  0EA4                     	;# 
   677  0EA5                     	;# 
   678  0F0F                     	;# 
   679  0F10                     	;# 
   680  0F11                     	;# 
   681  0F12                     	;# 
   682  0F13                     	;# 
   683  0F14                     	;# 
   684  0F15                     	;# 
   685  0F16                     	;# 
   686  0F17                     	;# 
   687  0F18                     	;# 
   688  0F19                     	;# 
   689  0F1A                     	;# 
   690  0F1B                     	;# 
   691  0F1C                     	;# 
   692  0F1D                     	;# 
   693  0F1E                     	;# 
   694  0F1F                     	;# 
   695  0F20                     	;# 
   696  0F21                     	;# 
   697  0F22                     	;# 
   698  0F23                     	;# 
   699  0F24                     	;# 
   700  0F25                     	;# 
   701  0F26                     	;# 
   702  0F27                     	;# 
   703  0F28                     	;# 
   704  0F29                     	;# 
   705  0F2A                     	;# 
   706  0F2B                     	;# 
   707  0F2C                     	;# 
   708  0F2D                     	;# 
   709  0F2E                     	;# 
   710  0F2F                     	;# 
   711  0F30                     	;# 
   712  0F31                     	;# 
   713  0F32                     	;# 
   714  0F33                     	;# 
   715  0F34                     	;# 
   716  0F35                     	;# 
   717  0F36                     	;# 
   718  0F37                     	;# 
   719  0FE4                     	;# 
   720  0FE5                     	;# 
   721  0FE6                     	;# 
   722  0FE7                     	;# 
   723  0FE8                     	;# 
   724  0FE9                     	;# 
   725  0FEA                     	;# 
   726  0FEB                     	;# 
   727  0FED                     	;# 
   728  0FEE                     	;# 
   729  0FEF                     	;# 
   730  0000                     	;# 
   731  0001                     	;# 
   732  0002                     	;# 
   733  0003                     	;# 
   734  0004                     	;# 
   735  0005                     	;# 
   736  0006                     	;# 
   737  0007                     	;# 
   738  0008                     	;# 
   739  0009                     	;# 
   740  000A                     	;# 
   741  000B                     	;# 
   742  000C                     	;# 
   743  000E                     	;# 
   744  0010                     	;# 
   745  0011                     	;# 
   746  0012                     	;# 
   747  0013                     	;# 
   748  0014                     	;# 
   749  0015                     	;# 
   750  0015                     	;# 
   751  0016                     	;# 
   752  0016                     	;# 
   753  0017                     	;# 
   754  0018                     	;# 
   755  0019                     	;# 
   756  0019                     	;# 
   757  001A                     	;# 
   758  001B                     	;# 
   759  001C                     	;# 
   760  001D                     	;# 
   761  001E                     	;# 
   762  001F                     	;# 
   763  008C                     	;# 
   764  008E                     	;# 
   765  0090                     	;# 
   766  0091                     	;# 
   767  0092                     	;# 
   768  0093                     	;# 
   769  0094                     	;# 
   770  0097                     	;# 
   771  009B                     	;# 
   772  009B                     	;# 
   773  009C                     	;# 
   774  009D                     	;# 
   775  009E                     	;# 
   776  009F                     	;# 
   777  010C                     	;# 
   778  010E                     	;# 
   779  0111                     	;# 
   780  0112                     	;# 
   781  0113                     	;# 
   782  0114                     	;# 
   783  0115                     	;# 
   784  0116                     	;# 
   785  0117                     	;# 
   786  0118                     	;# 
   787  0119                     	;# 
   788  018C                     	;# 
   789  018E                     	;# 
   790  0197                     	;# 
   791  0199                     	;# 
   792  0199                     	;# 
   793  0199                     	;# 
   794  019A                     	;# 
   795  019A                     	;# 
   796  019A                     	;# 
   797  019B                     	;# 
   798  019B                     	;# 
   799  019B                     	;# 
   800  019B                     	;# 
   801  019B                     	;# 
   802  019C                     	;# 
   803  019C                     	;# 
   804  019C                     	;# 
   805  019D                     	;# 
   806  019D                     	;# 
   807  019D                     	;# 
   808  019E                     	;# 
   809  019E                     	;# 
   810  019E                     	;# 
   811  019F                     	;# 
   812  019F                     	;# 
   813  019F                     	;# 
   814  019F                     	;# 
   815  019F                     	;# 
   816  020C                     	;# 
   817  020E                     	;# 
   818  0211                     	;# 
   819  0211                     	;# 
   820  0212                     	;# 
   821  0212                     	;# 
   822  0213                     	;# 
   823  0213                     	;# 
   824  0214                     	;# 
   825  0214                     	;# 
   826  0215                     	;# 
   827  0215                     	;# 
   828  0215                     	;# 
   829  0215                     	;# 
   830  0216                     	;# 
   831  0216                     	;# 
   832  0217                     	;# 
   833  0217                     	;# 
   834  0219                     	;# 
   835  021A                     	;# 
   836  021B                     	;# 
   837  021C                     	;# 
   838  021D                     	;# 
   839  021D                     	;# 
   840  021E                     	;# 
   841  021F                     	;# 
   842  028C                     	;# 
   843  028E                     	;# 
   844  0291                     	;# 
   845  0291                     	;# 
   846  0292                     	;# 
   847  0293                     	;# 
   848  0294                     	;# 
   849  0295                     	;# 
   850  0295                     	;# 
   851  0296                     	;# 
   852  0297                     	;# 
   853  0298                     	;# 
   854  029F                     	;# 
   855  030C                     	;# 
   856  030E                     	;# 
   857  0311                     	;# 
   858  0311                     	;# 
   859  0312                     	;# 
   860  0313                     	;# 
   861  0314                     	;# 
   862  0315                     	;# 
   863  0315                     	;# 
   864  0316                     	;# 
   865  0317                     	;# 
   866  0318                     	;# 
   867  038C                     	;# 
   868  038E                     	;# 
   869  0391                     	;# 
   870  0392                     	;# 
   871  0393                     	;# 
   872  0397                     	;# 
   873  0398                     	;# 
   874  0399                     	;# 
   875  039A                     	;# 
   876  039C                     	;# 
   877  039D                     	;# 
   878  039E                     	;# 
   879  039F                     	;# 
   880  0411                     	;# 
   881  0411                     	;# 
   882  0412                     	;# 
   883  0413                     	;# 
   884  0414                     	;# 
   885  0415                     	;# 
   886  0416                     	;# 
   887  0417                     	;# 
   888  0418                     	;# 
   889  0418                     	;# 
   890  0419                     	;# 
   891  041A                     	;# 
   892  041B                     	;# 
   893  041C                     	;# 
   894  041D                     	;# 
   895  041E                     	;# 
   896  041F                     	;# 
   897  0498                     	;# 
   898  0498                     	;# 
   899  0499                     	;# 
   900  049A                     	;# 
   901  049B                     	;# 
   902  049B                     	;# 
   903  049C                     	;# 
   904  049D                     	;# 
   905  049E                     	;# 
   906  049F                     	;# 
   907  0617                     	;# 
   908  0618                     	;# 
   909  0619                     	;# 
   910  0619                     	;# 
   911  061A                     	;# 
   912  061B                     	;# 
   913  061C                     	;# 
   914  061C                     	;# 
   915  061F                     	;# 
   916  0691                     	;# 
   917  0692                     	;# 
   918  0693                     	;# 
   919  0694                     	;# 
   920  0695                     	;# 
   921  0696                     	;# 
   922  0697                     	;# 
   923  0698                     	;# 
   924  0699                     	;# 
   925  0711                     	;# 
   926  0712                     	;# 
   927  0713                     	;# 
   928  0714                     	;# 
   929  0715                     	;# 
   930  0716                     	;# 
   931  0717                     	;# 
   932  0718                     	;# 
   933  0719                     	;# 
   934  0891                     	;# 
   935  0891                     	;# 
   936  0891                     	;# 
   937  0891                     	;# 
   938  0891                     	;# 
   939  0891                     	;# 
   940  0892                     	;# 
   941  0892                     	;# 
   942  0892                     	;# 
   943  0893                     	;# 
   944  0893                     	;# 
   945  0893                     	;# 
   946  0893                     	;# 
   947  0893                     	;# 
   948  0893                     	;# 
   949  0894                     	;# 
   950  0894                     	;# 
   951  0894                     	;# 
   952  0895                     	;# 
   953  0895                     	;# 
   954  0895                     	;# 
   955  0896                     	;# 
   956  0896                     	;# 
   957  0896                     	;# 
   958  089B                     	;# 
   959  0911                     	;# 
   960  0912                     	;# 
   961  0913                     	;# 
   962  0914                     	;# 
   963  0915                     	;# 
   964  0916                     	;# 
   965  0918                     	;# 
   966  0919                     	;# 
   967  091A                     	;# 
   968  091B                     	;# 
   969  091C                     	;# 
   970  091D                     	;# 
   971  091E                     	;# 
   972  091F                     	;# 
   973  0E0F                     	;# 
   974  0E10                     	;# 
   975  0E11                     	;# 
   976  0E12                     	;# 
   977  0E13                     	;# 
   978  0E14                     	;# 
   979  0E15                     	;# 
   980  0E16                     	;# 
   981  0E17                     	;# 
   982  0E18                     	;# 
   983  0E19                     	;# 
   984  0E1A                     	;# 
   985  0E1B                     	;# 
   986  0E1C                     	;# 
   987  0E1D                     	;# 
   988  0E1E                     	;# 
   989  0E1F                     	;# 
   990  0E20                     	;# 
   991  0E21                     	;# 
   992  0E22                     	;# 
   993  0E24                     	;# 
   994  0E25                     	;# 
   995  0E28                     	;# 
   996  0E29                     	;# 
   997  0E2A                     	;# 
   998  0E2B                     	;# 
   999  0E2C                     	;# 
  1000  0E2D                     	;# 
  1001  0E2E                     	;# 
  1002  0E2F                     	;# 
  1003  0E90                     	;# 
  1004  0E91                     	;# 
  1005  0E92                     	;# 
  1006  0E94                     	;# 
  1007  0E95                     	;# 
  1008  0EA0                     	;# 
  1009  0EA1                     	;# 
  1010  0EA2                     	;# 
  1011  0EA3                     	;# 
  1012  0EA4                     	;# 
  1013  0EA5                     	;# 
  1014  0F0F                     	;# 
  1015  0F10                     	;# 
  1016  0F11                     	;# 
  1017  0F12                     	;# 
  1018  0F13                     	;# 
  1019  0F14                     	;# 
  1020  0F15                     	;# 
  1021  0F16                     	;# 
  1022  0F17                     	;# 
  1023  0F18                     	;# 
  1024  0F19                     	;# 
  1025  0F1A                     	;# 
  1026  0F1B                     	;# 
  1027  0F1C                     	;# 
  1028  0F1D                     	;# 
  1029  0F1E                     	;# 
  1030  0F1F                     	;# 
  1031  0F20                     	;# 
  1032  0F21                     	;# 
  1033  0F22                     	;# 
  1034  0F23                     	;# 
  1035  0F24                     	;# 
  1036  0F25                     	;# 
  1037  0F26                     	;# 
  1038  0F27                     	;# 
  1039  0F28                     	;# 
  1040  0F29                     	;# 
  1041  0F2A                     	;# 
  1042  0F2B                     	;# 
  1043  0F2C                     	;# 
  1044  0F2D                     	;# 
  1045  0F2E                     	;# 
  1046  0F2F                     	;# 
  1047  0F30                     	;# 
  1048  0F31                     	;# 
  1049  0F32                     	;# 
  1050  0F33                     	;# 
  1051  0F34                     	;# 
  1052  0F35                     	;# 
  1053  0F36                     	;# 
  1054  0F37                     	;# 
  1055  0FE4                     	;# 
  1056  0FE5                     	;# 
  1057  0FE6                     	;# 
  1058  0FE7                     	;# 
  1059  0FE8                     	;# 
  1060  0FE9                     	;# 
  1061  0FEA                     	;# 
  1062  0FEB                     	;# 
  1063  0FED                     	;# 
  1064  0FEE                     	;# 
  1065  0FEF                     	;# 
  1066  0000                     	;# 
  1067  0001                     	;# 
  1068  0002                     	;# 
  1069  0003                     	;# 
  1070  0004                     	;# 
  1071  0005                     	;# 
  1072  0006                     	;# 
  1073  0007                     	;# 
  1074  0008                     	;# 
  1075  0009                     	;# 
  1076  000A                     	;# 
  1077  000B                     	;# 
  1078  000C                     	;# 
  1079  000E                     	;# 
  1080  0010                     	;# 
  1081  0011                     	;# 
  1082  0012                     	;# 
  1083  0013                     	;# 
  1084  0014                     	;# 
  1085  0015                     	;# 
  1086  0015                     	;# 
  1087  0016                     	;# 
  1088  0016                     	;# 
  1089  0017                     	;# 
  1090  0018                     	;# 
  1091  0019                     	;# 
  1092  0019                     	;# 
  1093  001A                     	;# 
  1094  001B                     	;# 
  1095  001C                     	;# 
  1096  001D                     	;# 
  1097  001E                     	;# 
  1098  001F                     	;# 
  1099  008C                     	;# 
  1100  008E                     	;# 
  1101  0090                     	;# 
  1102  0091                     	;# 
  1103  0092                     	;# 
  1104  0093                     	;# 
  1105  0094                     	;# 
  1106  0097                     	;# 
  1107  009B                     	;# 
  1108  009B                     	;# 
  1109  009C                     	;# 
  1110  009D                     	;# 
  1111  009E                     	;# 
  1112  009F                     	;# 
  1113  010C                     	;# 
  1114  010E                     	;# 
  1115  0111                     	;# 
  1116  0112                     	;# 
  1117  0113                     	;# 
  1118  0114                     	;# 
  1119  0115                     	;# 
  1120  0116                     	;# 
  1121  0117                     	;# 
  1122  0118                     	;# 
  1123  0119                     	;# 
  1124  018C                     	;# 
  1125  018E                     	;# 
  1126  0197                     	;# 
  1127  0199                     	;# 
  1128  0199                     	;# 
  1129  0199                     	;# 
  1130  019A                     	;# 
  1131  019A                     	;# 
  1132  019A                     	;# 
  1133  019B                     	;# 
  1134  019B                     	;# 
  1135  019B                     	;# 
  1136  019B                     	;# 
  1137  019B                     	;# 
  1138  019C                     	;# 
  1139  019C                     	;# 
  1140  019C                     	;# 
  1141  019D                     	;# 
  1142  019D                     	;# 
  1143  019D                     	;# 
  1144  019E                     	;# 
  1145  019E                     	;# 
  1146  019E                     	;# 
  1147  019F                     	;# 
  1148  019F                     	;# 
  1149  019F                     	;# 
  1150  019F                     	;# 
  1151  019F                     	;# 
  1152  020C                     	;# 
  1153  020E                     	;# 
  1154  0211                     	;# 
  1155  0211                     	;# 
  1156  0212                     	;# 
  1157  0212                     	;# 
  1158  0213                     	;# 
  1159  0213                     	;# 
  1160  0214                     	;# 
  1161  0214                     	;# 
  1162  0215                     	;# 
  1163  0215                     	;# 
  1164  0215                     	;# 
  1165  0215                     	;# 
  1166  0216                     	;# 
  1167  0216                     	;# 
  1168  0217                     	;# 
  1169  0217                     	;# 
  1170  0219                     	;# 
  1171  021A                     	;# 
  1172  021B                     	;# 
  1173  021C                     	;# 
  1174  021D                     	;# 
  1175  021D                     	;# 
  1176  021E                     	;# 
  1177  021F                     	;# 
  1178  028C                     	;# 
  1179  028E                     	;# 
  1180  0291                     	;# 
  1181  0291                     	;# 
  1182  0292                     	;# 
  1183  0293                     	;# 
  1184  0294                     	;# 
  1185  0295                     	;# 
  1186  0295                     	;# 
  1187  0296                     	;# 
  1188  0297                     	;# 
  1189  0298                     	;# 
  1190  029F                     	;# 
  1191  030C                     	;# 
  1192  030E                     	;# 
  1193  0311                     	;# 
  1194  0311                     	;# 
  1195  0312                     	;# 
  1196  0313                     	;# 
  1197  0314                     	;# 
  1198  0315                     	;# 
  1199  0315                     	;# 
  1200  0316                     	;# 
  1201  0317                     	;# 
  1202  0318                     	;# 
  1203  038C                     	;# 
  1204  038E                     	;# 
  1205  0391                     	;# 
  1206  0392                     	;# 
  1207  0393                     	;# 
  1208  0397                     	;# 
  1209  0398                     	;# 
  1210  0399                     	;# 
  1211  039A                     	;# 
  1212  039C                     	;# 
  1213  039D                     	;# 
  1214  039E                     	;# 
  1215  039F                     	;# 
  1216  0411                     	;# 
  1217  0411                     	;# 
  1218  0412                     	;# 
  1219  0413                     	;# 
  1220  0414                     	;# 
  1221  0415                     	;# 
  1222  0416                     	;# 
  1223  0417                     	;# 
  1224  0418                     	;# 
  1225  0418                     	;# 
  1226  0419                     	;# 
  1227  041A                     	;# 
  1228  041B                     	;# 
  1229  041C                     	;# 
  1230  041D                     	;# 
  1231  041E                     	;# 
  1232  041F                     	;# 
  1233  0498                     	;# 
  1234  0498                     	;# 
  1235  0499                     	;# 
  1236  049A                     	;# 
  1237  049B                     	;# 
  1238  049B                     	;# 
  1239  049C                     	;# 
  1240  049D                     	;# 
  1241  049E                     	;# 
  1242  049F                     	;# 
  1243  0617                     	;# 
  1244  0618                     	;# 
  1245  0619                     	;# 
  1246  0619                     	;# 
  1247  061A                     	;# 
  1248  061B                     	;# 
  1249  061C                     	;# 
  1250  061C                     	;# 
  1251  061F                     	;# 
  1252  0691                     	;# 
  1253  0692                     	;# 
  1254  0693                     	;# 
  1255  0694                     	;# 
  1256  0695                     	;# 
  1257  0696                     	;# 
  1258  0697                     	;# 
  1259  0698                     	;# 
  1260  0699                     	;# 
  1261  0711                     	;# 
  1262  0712                     	;# 
  1263  0713                     	;# 
  1264  0714                     	;# 
  1265  0715                     	;# 
  1266  0716                     	;# 
  1267  0717                     	;# 
  1268  0718                     	;# 
  1269  0719                     	;# 
  1270  0891                     	;# 
  1271  0891                     	;# 
  1272  0891                     	;# 
  1273  0891                     	;# 
  1274  0891                     	;# 
  1275  0891                     	;# 
  1276  0892                     	;# 
  1277  0892                     	;# 
  1278  0892                     	;# 
  1279  0893                     	;# 
  1280  0893                     	;# 
  1281  0893                     	;# 
  1282  0893                     	;# 
  1283  0893                     	;# 
  1284  0893                     	;# 
  1285  0894                     	;# 
  1286  0894                     	;# 
  1287  0894                     	;# 
  1288  0895                     	;# 
  1289  0895                     	;# 
  1290  0895                     	;# 
  1291  0896                     	;# 
  1292  0896                     	;# 
  1293  0896                     	;# 
  1294  089B                     	;# 
  1295  0911                     	;# 
  1296  0912                     	;# 
  1297  0913                     	;# 
  1298  0914                     	;# 
  1299  0915                     	;# 
  1300  0916                     	;# 
  1301  0918                     	;# 
  1302  0919                     	;# 
  1303  091A                     	;# 
  1304  091B                     	;# 
  1305  091C                     	;# 
  1306  091D                     	;# 
  1307  091E                     	;# 
  1308  091F                     	;# 
  1309  0E0F                     	;# 
  1310  0E10                     	;# 
  1311  0E11                     	;# 
  1312  0E12                     	;# 
  1313  0E13                     	;# 
  1314  0E14                     	;# 
  1315  0E15                     	;# 
  1316  0E16                     	;# 
  1317  0E17                     	;# 
  1318  0E18                     	;# 
  1319  0E19                     	;# 
  1320  0E1A                     	;# 
  1321  0E1B                     	;# 
  1322  0E1C                     	;# 
  1323  0E1D                     	;# 
  1324  0E1E                     	;# 
  1325  0E1F                     	;# 
  1326  0E20                     	;# 
  1327  0E21                     	;# 
  1328  0E22                     	;# 
  1329  0E24                     	;# 
  1330  0E25                     	;# 
  1331  0E28                     	;# 
  1332  0E29                     	;# 
  1333  0E2A                     	;# 
  1334  0E2B                     	;# 
  1335  0E2C                     	;# 
  1336  0E2D                     	;# 
  1337  0E2E                     	;# 
  1338  0E2F                     	;# 
  1339  0E90                     	;# 
  1340  0E91                     	;# 
  1341  0E92                     	;# 
  1342  0E94                     	;# 
  1343  0E95                     	;# 
  1344  0EA0                     	;# 
  1345  0EA1                     	;# 
  1346  0EA2                     	;# 
  1347  0EA3                     	;# 
  1348  0EA4                     	;# 
  1349  0EA5                     	;# 
  1350  0F0F                     	;# 
  1351  0F10                     	;# 
  1352  0F11                     	;# 
  1353  0F12                     	;# 
  1354  0F13                     	;# 
  1355  0F14                     	;# 
  1356  0F15                     	;# 
  1357  0F16                     	;# 
  1358  0F17                     	;# 
  1359  0F18                     	;# 
  1360  0F19                     	;# 
  1361  0F1A                     	;# 
  1362  0F1B                     	;# 
  1363  0F1C                     	;# 
  1364  0F1D                     	;# 
  1365  0F1E                     	;# 
  1366  0F1F                     	;# 
  1367  0F20                     	;# 
  1368  0F21                     	;# 
  1369  0F22                     	;# 
  1370  0F23                     	;# 
  1371  0F24                     	;# 
  1372  0F25                     	;# 
  1373  0F26                     	;# 
  1374  0F27                     	;# 
  1375  0F28                     	;# 
  1376  0F29                     	;# 
  1377  0F2A                     	;# 
  1378  0F2B                     	;# 
  1379  0F2C                     	;# 
  1380  0F2D                     	;# 
  1381  0F2E                     	;# 
  1382  0F2F                     	;# 
  1383  0F30                     	;# 
  1384  0F31                     	;# 
  1385  0F32                     	;# 
  1386  0F33                     	;# 
  1387  0F34                     	;# 
  1388  0F35                     	;# 
  1389  0F36                     	;# 
  1390  0F37                     	;# 
  1391  0FE4                     	;# 
  1392  0FE5                     	;# 
  1393  0FE6                     	;# 
  1394  0FE7                     	;# 
  1395  0FE8                     	;# 
  1396  0FE9                     	;# 
  1397  0FEA                     	;# 
  1398  0FEB                     	;# 
  1399  0FED                     	;# 
  1400  0FEE                     	;# 
  1401  0FEF                     	;# 
  1402  0000                     	;# 
  1403  0001                     	;# 
  1404  0002                     	;# 
  1405  0003                     	;# 
  1406  0004                     	;# 
  1407  0005                     	;# 
  1408  0006                     	;# 
  1409  0007                     	;# 
  1410  0008                     	;# 
  1411  0009                     	;# 
  1412  000A                     	;# 
  1413  000B                     	;# 
  1414  000C                     	;# 
  1415  000E                     	;# 
  1416  0010                     	;# 
  1417  0011                     	;# 
  1418  0012                     	;# 
  1419  0013                     	;# 
  1420  0014                     	;# 
  1421  0015                     	;# 
  1422  0015                     	;# 
  1423  0016                     	;# 
  1424  0016                     	;# 
  1425  0017                     	;# 
  1426  0018                     	;# 
  1427  0019                     	;# 
  1428  0019                     	;# 
  1429  001A                     	;# 
  1430  001B                     	;# 
  1431  001C                     	;# 
  1432  001D                     	;# 
  1433  001E                     	;# 
  1434  001F                     	;# 
  1435  008C                     	;# 
  1436  008E                     	;# 
  1437  0090                     	;# 
  1438  0091                     	;# 
  1439  0092                     	;# 
  1440  0093                     	;# 
  1441  0094                     	;# 
  1442  0097                     	;# 
  1443  009B                     	;# 
  1444  009B                     	;# 
  1445  009C                     	;# 
  1446  009D                     	;# 
  1447  009E                     	;# 
  1448  009F                     	;# 
  1449  010C                     	;# 
  1450  010E                     	;# 
  1451  0111                     	;# 
  1452  0112                     	;# 
  1453  0113                     	;# 
  1454  0114                     	;# 
  1455  0115                     	;# 
  1456  0116                     	;# 
  1457  0117                     	;# 
  1458  0118                     	;# 
  1459  0119                     	;# 
  1460  018C                     	;# 
  1461  018E                     	;# 
  1462  0197                     	;# 
  1463  0199                     	;# 
  1464  0199                     	;# 
  1465  0199                     	;# 
  1466  019A                     	;# 
  1467  019A                     	;# 
  1468  019A                     	;# 
  1469  019B                     	;# 
  1470  019B                     	;# 
  1471  019B                     	;# 
  1472  019B                     	;# 
  1473  019B                     	;# 
  1474  019C                     	;# 
  1475  019C                     	;# 
  1476  019C                     	;# 
  1477  019D                     	;# 
  1478  019D                     	;# 
  1479  019D                     	;# 
  1480  019E                     	;# 
  1481  019E                     	;# 
  1482  019E                     	;# 
  1483  019F                     	;# 
  1484  019F                     	;# 
  1485  019F                     	;# 
  1486  019F                     	;# 
  1487  019F                     	;# 
  1488  020C                     	;# 
  1489  020E                     	;# 
  1490  0211                     	;# 
  1491  0211                     	;# 
  1492  0212                     	;# 
  1493  0212                     	;# 
  1494  0213                     	;# 
  1495  0213                     	;# 
  1496  0214                     	;# 
  1497  0214                     	;# 
  1498  0215                     	;# 
  1499  0215                     	;# 
  1500  0215                     	;# 
  1501  0215                     	;# 
  1502  0216                     	;# 
  1503  0216                     	;# 
  1504  0217                     	;# 
  1505  0217                     	;# 
  1506  0219                     	;# 
  1507  021A                     	;# 
  1508  021B                     	;# 
  1509  021C                     	;# 
  1510  021D                     	;# 
  1511  021D                     	;# 
  1512  021E                     	;# 
  1513  021F                     	;# 
  1514  028C                     	;# 
  1515  028E                     	;# 
  1516  0291                     	;# 
  1517  0291                     	;# 
  1518  0292                     	;# 
  1519  0293                     	;# 
  1520  0294                     	;# 
  1521  0295                     	;# 
  1522  0295                     	;# 
  1523  0296                     	;# 
  1524  0297                     	;# 
  1525  0298                     	;# 
  1526  029F                     	;# 
  1527  030C                     	;# 
  1528  030E                     	;# 
  1529  0311                     	;# 
  1530  0311                     	;# 
  1531  0312                     	;# 
  1532  0313                     	;# 
  1533  0314                     	;# 
  1534  0315                     	;# 
  1535  0315                     	;# 
  1536  0316                     	;# 
  1537  0317                     	;# 
  1538  0318                     	;# 
  1539  038C                     	;# 
  1540  038E                     	;# 
  1541  0391                     	;# 
  1542  0392                     	;# 
  1543  0393                     	;# 
  1544  0397                     	;# 
  1545  0398                     	;# 
  1546  0399                     	;# 
  1547  039A                     	;# 
  1548  039C                     	;# 
  1549  039D                     	;# 
  1550  039E                     	;# 
  1551  039F                     	;# 
  1552  0411                     	;# 
  1553  0411                     	;# 
  1554  0412                     	;# 
  1555  0413                     	;# 
  1556  0414                     	;# 
  1557  0415                     	;# 
  1558  0416                     	;# 
  1559  0417                     	;# 
  1560  0418                     	;# 
  1561  0418                     	;# 
  1562  0419                     	;# 
  1563  041A                     	;# 
  1564  041B                     	;# 
  1565  041C                     	;# 
  1566  041D                     	;# 
  1567  041E                     	;# 
  1568  041F                     	;# 
  1569  0498                     	;# 
  1570  0498                     	;# 
  1571  0499                     	;# 
  1572  049A                     	;# 
  1573  049B                     	;# 
  1574  049B                     	;# 
  1575  049C                     	;# 
  1576  049D                     	;# 
  1577  049E                     	;# 
  1578  049F                     	;# 
  1579  0617                     	;# 
  1580  0618                     	;# 
  1581  0619                     	;# 
  1582  0619                     	;# 
  1583  061A                     	;# 
  1584  061B                     	;# 
  1585  061C                     	;# 
  1586  061C                     	;# 
  1587  061F                     	;# 
  1588  0691                     	;# 
  1589  0692                     	;# 
  1590  0693                     	;# 
  1591  0694                     	;# 
  1592  0695                     	;# 
  1593  0696                     	;# 
  1594  0697                     	;# 
  1595  0698                     	;# 
  1596  0699                     	;# 
  1597  0711                     	;# 
  1598  0712                     	;# 
  1599  0713                     	;# 
  1600  0714                     	;# 
  1601  0715                     	;# 
  1602  0716                     	;# 
  1603  0717                     	;# 
  1604  0718                     	;# 
  1605  0719                     	;# 
  1606  0891                     	;# 
  1607  0891                     	;# 
  1608  0891                     	;# 
  1609  0891                     	;# 
  1610  0891                     	;# 
  1611  0891                     	;# 
  1612  0892                     	;# 
  1613  0892                     	;# 
  1614  0892                     	;# 
  1615  0893                     	;# 
  1616  0893                     	;# 
  1617  0893                     	;# 
  1618  0893                     	;# 
  1619  0893                     	;# 
  1620  0893                     	;# 
  1621  0894                     	;# 
  1622  0894                     	;# 
  1623  0894                     	;# 
  1624  0895                     	;# 
  1625  0895                     	;# 
  1626  0895                     	;# 
  1627  0896                     	;# 
  1628  0896                     	;# 
  1629  0896                     	;# 
  1630  089B                     	;# 
  1631  0911                     	;# 
  1632  0912                     	;# 
  1633  0913                     	;# 
  1634  0914                     	;# 
  1635  0915                     	;# 
  1636  0916                     	;# 
  1637  0918                     	;# 
  1638  0919                     	;# 
  1639  091A                     	;# 
  1640  091B                     	;# 
  1641  091C                     	;# 
  1642  091D                     	;# 
  1643  091E                     	;# 
  1644  091F                     	;# 
  1645  0E0F                     	;# 
  1646  0E10                     	;# 
  1647  0E11                     	;# 
  1648  0E12                     	;# 
  1649  0E13                     	;# 
  1650  0E14                     	;# 
  1651  0E15                     	;# 
  1652  0E16                     	;# 
  1653  0E17                     	;# 
  1654  0E18                     	;# 
  1655  0E19                     	;# 
  1656  0E1A                     	;# 
  1657  0E1B                     	;# 
  1658  0E1C                     	;# 
  1659  0E1D                     	;# 
  1660  0E1E                     	;# 
  1661  0E1F                     	;# 
  1662  0E20                     	;# 
  1663  0E21                     	;# 
  1664  0E22                     	;# 
  1665  0E24                     	;# 
  1666  0E25                     	;# 
  1667  0E28                     	;# 
  1668  0E29                     	;# 
  1669  0E2A                     	;# 
  1670  0E2B                     	;# 
  1671  0E2C                     	;# 
  1672  0E2D                     	;# 
  1673  0E2E                     	;# 
  1674  0E2F                     	;# 
  1675  0E90                     	;# 
  1676  0E91                     	;# 
  1677  0E92                     	;# 
  1678  0E94                     	;# 
  1679  0E95                     	;# 
  1680  0EA0                     	;# 
  1681  0EA1                     	;# 
  1682  0EA2                     	;# 
  1683  0EA3                     	;# 
  1684  0EA4                     	;# 
  1685  0EA5                     	;# 
  1686  0F0F                     	;# 
  1687  0F10                     	;# 
  1688  0F11                     	;# 
  1689  0F12                     	;# 
  1690  0F13                     	;# 
  1691  0F14                     	;# 
  1692  0F15                     	;# 
  1693  0F16                     	;# 
  1694  0F17                     	;# 
  1695  0F18                     	;# 
  1696  0F19                     	;# 
  1697  0F1A                     	;# 
  1698  0F1B                     	;# 
  1699  0F1C                     	;# 
  1700  0F1D                     	;# 
  1701  0F1E                     	;# 
  1702  0F1F                     	;# 
  1703  0F20                     	;# 
  1704  0F21                     	;# 
  1705  0F22                     	;# 
  1706  0F23                     	;# 
  1707  0F24                     	;# 
  1708  0F25                     	;# 
  1709  0F26                     	;# 
  1710  0F27                     	;# 
  1711  0F28                     	;# 
  1712  0F29                     	;# 
  1713  0F2A                     	;# 
  1714  0F2B                     	;# 
  1715  0F2C                     	;# 
  1716  0F2D                     	;# 
  1717  0F2E                     	;# 
  1718  0F2F                     	;# 
  1719  0F30                     	;# 
  1720  0F31                     	;# 
  1721  0F32                     	;# 
  1722  0F33                     	;# 
  1723  0F34                     	;# 
  1724  0F35                     	;# 
  1725  0F36                     	;# 
  1726  0F37                     	;# 
  1727  0FE4                     	;# 
  1728  0FE5                     	;# 
  1729  0FE6                     	;# 
  1730  0FE7                     	;# 
  1731  0FE8                     	;# 
  1732  0FE9                     	;# 
  1733  0FEA                     	;# 
  1734  0FEB                     	;# 
  1735  0FED                     	;# 
  1736  0FEE                     	;# 
  1737  0FEF                     	;# 
  1738  0000                     	;# 
  1739  0001                     	;# 
  1740  0002                     	;# 
  1741  0003                     	;# 
  1742  0004                     	;# 
  1743  0005                     	;# 
  1744  0006                     	;# 
  1745  0007                     	;# 
  1746  0008                     	;# 
  1747  0009                     	;# 
  1748  000A                     	;# 
  1749  000B                     	;# 
  1750  000C                     	;# 
  1751  000E                     	;# 
  1752  0010                     	;# 
  1753  0011                     	;# 
  1754  0012                     	;# 
  1755  0013                     	;# 
  1756  0014                     	;# 
  1757  0015                     	;# 
  1758  0015                     	;# 
  1759  0016                     	;# 
  1760  0016                     	;# 
  1761  0017                     	;# 
  1762  0018                     	;# 
  1763  0019                     	;# 
  1764  0019                     	;# 
  1765  001A                     	;# 
  1766  001B                     	;# 
  1767  001C                     	;# 
  1768  001D                     	;# 
  1769  001E                     	;# 
  1770  001F                     	;# 
  1771  008C                     	;# 
  1772  008E                     	;# 
  1773  0090                     	;# 
  1774  0091                     	;# 
  1775  0092                     	;# 
  1776  0093                     	;# 
  1777  0094                     	;# 
  1778  0097                     	;# 
  1779  009B                     	;# 
  1780  009B                     	;# 
  1781  009C                     	;# 
  1782  009D                     	;# 
  1783  009E                     	;# 
  1784  009F                     	;# 
  1785  010C                     	;# 
  1786  010E                     	;# 
  1787  0111                     	;# 
  1788  0112                     	;# 
  1789  0113                     	;# 
  1790  0114                     	;# 
  1791  0115                     	;# 
  1792  0116                     	;# 
  1793  0117                     	;# 
  1794  0118                     	;# 
  1795  0119                     	;# 
  1796  018C                     	;# 
  1797  018E                     	;# 
  1798  0197                     	;# 
  1799  0199                     	;# 
  1800  0199                     	;# 
  1801  0199                     	;# 
  1802  019A                     	;# 
  1803  019A                     	;# 
  1804  019A                     	;# 
  1805  019B                     	;# 
  1806  019B                     	;# 
  1807  019B                     	;# 
  1808  019B                     	;# 
  1809  019B                     	;# 
  1810  019C                     	;# 
  1811  019C                     	;# 
  1812  019C                     	;# 
  1813  019D                     	;# 
  1814  019D                     	;# 
  1815  019D                     	;# 
  1816  019E                     	;# 
  1817  019E                     	;# 
  1818  019E                     	;# 
  1819  019F                     	;# 
  1820  019F                     	;# 
  1821  019F                     	;# 
  1822  019F                     	;# 
  1823  019F                     	;# 
  1824  020C                     	;# 
  1825  020E                     	;# 
  1826  0211                     	;# 
  1827  0211                     	;# 
  1828  0212                     	;# 
  1829  0212                     	;# 
  1830  0213                     	;# 
  1831  0213                     	;# 
  1832  0214                     	;# 
  1833  0214                     	;# 
  1834  0215                     	;# 
  1835  0215                     	;# 
  1836  0215                     	;# 
  1837  0215                     	;# 
  1838  0216                     	;# 
  1839  0216                     	;# 
  1840  0217                     	;# 
  1841  0217                     	;# 
  1842  0219                     	;# 
  1843  021A                     	;# 
  1844  021B                     	;# 
  1845  021C                     	;# 
  1846  021D                     	;# 
  1847  021D                     	;# 
  1848  021E                     	;# 
  1849  021F                     	;# 
  1850  028C                     	;# 
  1851  028E                     	;# 
  1852  0291                     	;# 
  1853  0291                     	;# 
  1854  0292                     	;# 
  1855  0293                     	;# 
  1856  0294                     	;# 
  1857  0295                     	;# 
  1858  0295                     	;# 
  1859  0296                     	;# 
  1860  0297                     	;# 
  1861  0298                     	;# 
  1862  029F                     	;# 
  1863  030C                     	;# 
  1864  030E                     	;# 
  1865  0311                     	;# 
  1866  0311                     	;# 
  1867  0312                     	;# 
  1868  0313                     	;# 
  1869  0314                     	;# 
  1870  0315                     	;# 
  1871  0315                     	;# 
  1872  0316                     	;# 
  1873  0317                     	;# 
  1874  0318                     	;# 
  1875  038C                     	;# 
  1876  038E                     	;# 
  1877  0391                     	;# 
  1878  0392                     	;# 
  1879  0393                     	;# 
  1880  0397                     	;# 
  1881  0398                     	;# 
  1882  0399                     	;# 
  1883  039A                     	;# 
  1884  039C                     	;# 
  1885  039D                     	;# 
  1886  039E                     	;# 
  1887  039F                     	;# 
  1888  0411                     	;# 
  1889  0411                     	;# 
  1890  0412                     	;# 
  1891  0413                     	;# 
  1892  0414                     	;# 
  1893  0415                     	;# 
  1894  0416                     	;# 
  1895  0417                     	;# 
  1896  0418                     	;# 
  1897  0418                     	;# 
  1898  0419                     	;# 
  1899  041A                     	;# 
  1900  041B                     	;# 
  1901  041C                     	;# 
  1902  041D                     	;# 
  1903  041E                     	;# 
  1904  041F                     	;# 
  1905  0498                     	;# 
  1906  0498                     	;# 
  1907  0499                     	;# 
  1908  049A                     	;# 
  1909  049B                     	;# 
  1910  049B                     	;# 
  1911  049C                     	;# 
  1912  049D                     	;# 
  1913  049E                     	;# 
  1914  049F                     	;# 
  1915  0617                     	;# 
  1916  0618                     	;# 
  1917  0619                     	;# 
  1918  0619                     	;# 
  1919  061A                     	;# 
  1920  061B                     	;# 
  1921  061C                     	;# 
  1922  061C                     	;# 
  1923  061F                     	;# 
  1924  0691                     	;# 
  1925  0692                     	;# 
  1926  0693                     	;# 
  1927  0694                     	;# 
  1928  0695                     	;# 
  1929  0696                     	;# 
  1930  0697                     	;# 
  1931  0698                     	;# 
  1932  0699                     	;# 
  1933  0711                     	;# 
  1934  0712                     	;# 
  1935  0713                     	;# 
  1936  0714                     	;# 
  1937  0715                     	;# 
  1938  0716                     	;# 
  1939  0717                     	;# 
  1940  0718                     	;# 
  1941  0719                     	;# 
  1942  0891                     	;# 
  1943  0891                     	;# 
  1944  0891                     	;# 
  1945  0891                     	;# 
  1946  0891                     	;# 
  1947  0891                     	;# 
  1948  0892                     	;# 
  1949  0892                     	;# 
  1950  0892                     	;# 
  1951  0893                     	;# 
  1952  0893                     	;# 
  1953  0893                     	;# 
  1954  0893                     	;# 
  1955  0893                     	;# 
  1956  0893                     	;# 
  1957  0894                     	;# 
  1958  0894                     	;# 
  1959  0894                     	;# 
  1960  0895                     	;# 
  1961  0895                     	;# 
  1962  0895                     	;# 
  1963  0896                     	;# 
  1964  0896                     	;# 
  1965  0896                     	;# 
  1966  089B                     	;# 
  1967  0911                     	;# 
  1968  0912                     	;# 
  1969  0913                     	;# 
  1970  0914                     	;# 
  1971  0915                     	;# 
  1972  0916                     	;# 
  1973  0918                     	;# 
  1974  0919                     	;# 
  1975  091A                     	;# 
  1976  091B                     	;# 
  1977  091C                     	;# 
  1978  091D                     	;# 
  1979  091E                     	;# 
  1980  091F                     	;# 
  1981  0E0F                     	;# 
  1982  0E10                     	;# 
  1983  0E11                     	;# 
  1984  0E12                     	;# 
  1985  0E13                     	;# 
  1986  0E14                     	;# 
  1987  0E15                     	;# 
  1988  0E16                     	;# 
  1989  0E17                     	;# 
  1990  0E18                     	;# 
  1991  0E19                     	;# 
  1992  0E1A                     	;# 
  1993  0E1B                     	;# 
  1994  0E1C                     	;# 
  1995  0E1D                     	;# 
  1996  0E1E                     	;# 
  1997  0E1F                     	;# 
  1998  0E20                     	;# 
  1999  0E21                     	;# 
  2000  0E22                     	;# 
  2001  0E24                     	;# 
  2002  0E25                     	;# 
  2003  0E28                     	;# 
  2004  0E29                     	;# 
  2005  0E2A                     	;# 
  2006  0E2B                     	;# 
  2007  0E2C                     	;# 
  2008  0E2D                     	;# 
  2009  0E2E                     	;# 
  2010  0E2F                     	;# 
  2011  0E90                     	;# 
  2012  0E91                     	;# 
  2013  0E92                     	;# 
  2014  0E94                     	;# 
  2015  0E95                     	;# 
  2016  0EA0                     	;# 
  2017  0EA1                     	;# 
  2018  0EA2                     	;# 
  2019  0EA3                     	;# 
  2020  0EA4                     	;# 
  2021  0EA5                     	;# 
  2022  0F0F                     	;# 
  2023  0F10                     	;# 
  2024  0F11                     	;# 
  2025  0F12                     	;# 
  2026  0F13                     	;# 
  2027  0F14                     	;# 
  2028  0F15                     	;# 
  2029  0F16                     	;# 
  2030  0F17                     	;# 
  2031  0F18                     	;# 
  2032  0F19                     	;# 
  2033  0F1A                     	;# 
  2034  0F1B                     	;# 
  2035  0F1C                     	;# 
  2036  0F1D                     	;# 
  2037  0F1E                     	;# 
  2038  0F1F                     	;# 
  2039  0F20                     	;# 
  2040  0F21                     	;# 
  2041  0F22                     	;# 
  2042  0F23                     	;# 
  2043  0F24                     	;# 
  2044  0F25                     	;# 
  2045  0F26                     	;# 
  2046  0F27                     	;# 
  2047  0F28                     	;# 
  2048  0F29                     	;# 
  2049  0F2A                     	;# 
  2050  0F2B                     	;# 
  2051  0F2C                     	;# 
  2052  0F2D                     	;# 
  2053  0F2E                     	;# 
  2054  0F2F                     	;# 
  2055  0F30                     	;# 
  2056  0F31                     	;# 
  2057  0F32                     	;# 
  2058  0F33                     	;# 
  2059  0F34                     	;# 
  2060  0F35                     	;# 
  2061  0F36                     	;# 
  2062  0F37                     	;# 
  2063  0FE4                     	;# 
  2064  0FE5                     	;# 
  2065  0FE6                     	;# 
  2066  0FE7                     	;# 
  2067  0FE8                     	;# 
  2068  0FE9                     	;# 
  2069  0FEA                     	;# 
  2070  0FEB                     	;# 
  2071  0FED                     	;# 
  2072  0FEE                     	;# 
  2073  0FEF                     	;# 
  2074                           
  2075                           	psect	nvCOMMON
  2076  0070                     __pnvCOMMON:	
  2077  0070                     _TMR1_InterruptHandler:	
  2078  0070                     	ds	2
  2079  0072                     _timer1ReloadVal:	
  2080  0072                     	ds	2
  2081  001C                     _T1GCONbits	set	28
  2082  001B                     _T1CONbits	set	27
  2083  001B                     _T1CON	set	27
  2084  0019                     _TMR1L	set	25
  2085  001A                     _TMR1H	set	26
  2086  001C                     _T1GCON	set	28
  2087  0011                     _PIR1bits	set	17
  2088  000B                     _INTCONbits	set	11
  2089  0091                     _PIE1bits	set	145
  2090  008E                     _TRISC	set	142
  2091  008C                     _TRISA	set	140
  2092  0097                     _WDTCON	set	151
  2093  010E                     _LATC	set	270
  2094  010C                     _LATA	set	268
  2095  010E                     _LATCbits	set	270
  2096  018C                     _ANSELA	set	396
  2097  018E                     _ANSELC	set	398
  2098  020E                     _WPUC	set	526
  2099  020C                     _WPUA	set	524
  2100  028E                     _ODCONC	set	654
  2101  028C                     _ODCONA	set	652
  2102  030E                     _SLRCONC	set	782
  2103  030C                     _SLRCONA	set	780
  2104  038E                     _INLVLC	set	910
  2105  038C                     _INLVLA	set	908
  2106  0916                     _PMD5	set	2326
  2107  0915                     _PMD4	set	2325
  2108  0914                     _PMD3	set	2324
  2109  0913                     _PMD2	set	2323
  2110  0912                     _PMD1	set	2322
  2111  0911                     _PMD0	set	2321
  2112  091E                     _OSCTUNE	set	2334
  2113  091F                     _OSCFRQ	set	2335
  2114  091D                     _OSCEN	set	2333
  2115  091B                     _OSCCON3	set	2331
  2116  0919                     _OSCCON1	set	2329
  2117                           
  2118                           ; #config settings
  2119  0000                     
  2120                           	psect	cinit
  2121  001B                     start_initialization:	
  2122  001B                     __initialization:	
  2123                           
  2124                           ; Clear objects allocated to COMMON
  2125  001B  01F4               	clrf	__pbssCOMMON& (0+127)
  2126  001C  01F5               	clrf	(__pbssCOMMON+1)& (0+127)
  2127  001D  01F6               	clrf	(__pbssCOMMON+2)& (0+127)
  2128  001E  01F7               	clrf	(__pbssCOMMON+3)& (0+127)
  2129  001F                     end_of_initialization:	
  2130                           ;End of C runtime variable initialization code
  2131                           
  2132  001F                     __end_of__initialization:	
  2133  001F  107E               	bcf	int$flags,0	;clear compiler interrupt flag (level 1)
  2134  0020  0020               	movlb	0
  2135  0021  3180  28B5         	ljmp	_main	;jump to C main() function
  2136                           
  2137                           	psect	bssCOMMON
  2138  0074                     __pbssCOMMON:	
  2139  0074                     _temp_ms:	
  2140  0074                     	ds	2
  2141  0076                     _cur_ms:	
  2142  0076                     	ds	2
  2143                           
  2144                           	psect	cstackCOMMON
  2145  0078                     __pcstackCOMMON:	
  2146  0078                     ?_SYSTEM_Initialize:	
  2147  0078                     ?_TMR1_Initialize:	
  2148                           ; 1 bytes @ 0x0
  2149                           
  2150  0078                     ?_TMR1_StartTimer:	
  2151                           ; 1 bytes @ 0x0
  2152                           
  2153  0078                     ?_PMD_Initialize:	
  2154                           ; 1 bytes @ 0x0
  2155                           
  2156  0078                     ?_PIN_MANAGER_Initialize:	
  2157                           ; 1 bytes @ 0x0
  2158                           
  2159  0078                     ?_OSCILLATOR_Initialize:	
  2160                           ; 1 bytes @ 0x0
  2161                           
  2162  0078                     ?_WDT_Initialize:	
  2163                           ; 1 bytes @ 0x0
  2164                           
  2165  0078                     ?_TMR1_ISR:	
  2166                           ; 1 bytes @ 0x0
  2167                           
  2168  0078                     ?_TMR1_DefaultInterruptHandler:	
  2169                           ; 1 bytes @ 0x0
  2170                           
  2171  0078                     ??_TMR1_DefaultInterruptHandler:	
  2172                           ; 1 bytes @ 0x0
  2173                           
  2174  0078                     ?_setup:	
  2175                           ; 1 bytes @ 0x0
  2176                           
  2177  0078                     ?_main:	
  2178                           ; 1 bytes @ 0x0
  2179                           
  2180  0078                     ?_INTERRUPT_InterruptManager:	
  2181                           ; 1 bytes @ 0x0
  2182                           
  2183  0078                     ?_TMR1_WriteTimer:	
  2184                           ; 1 bytes @ 0x0
  2185                           
  2186  0078                     TMR1_WriteTimer@timerVal:	
  2187                           ; 1 bytes @ 0x0
  2188                           
  2189                           
  2190                           ; 2 bytes @ 0x0
  2191  0078                     	ds	2
  2192  007A                     ??_TMR1_StartTimer:	
  2193  007A                     ??_PMD_Initialize:	
  2194                           ; 1 bytes @ 0x2
  2195                           
  2196  007A                     ??_PIN_MANAGER_Initialize:	
  2197                           ; 1 bytes @ 0x2
  2198                           
  2199  007A                     ??_OSCILLATOR_Initialize:	
  2200                           ; 1 bytes @ 0x2
  2201                           
  2202  007A                     ??_WDT_Initialize:	
  2203                           ; 1 bytes @ 0x2
  2204                           
  2205  007A                     ??_TMR1_ISR:	
  2206                           ; 1 bytes @ 0x2
  2207                           
  2208  007A                     ?_TMR1_SetInterruptHandler:	
  2209                           ; 1 bytes @ 0x2
  2210                           
  2211  007A                     ??_INTERRUPT_InterruptManager:	
  2212                           ; 1 bytes @ 0x2
  2213                           
  2214  007A                     ??_TMR1_WriteTimer:	
  2215                           ; 1 bytes @ 0x2
  2216                           
  2217  007A                     TMR1_SetInterruptHandler@InterruptHandler:	
  2218                           ; 1 bytes @ 0x2
  2219                           
  2220                           
  2221                           ; 2 bytes @ 0x2
  2222  007A                     	ds	2
  2223  007C                     ??_SYSTEM_Initialize:	
  2224  007C                     ??_TMR1_Initialize:	
  2225                           ; 1 bytes @ 0x4
  2226                           
  2227  007C                     ??_TMR1_SetInterruptHandler:	
  2228                           ; 1 bytes @ 0x4
  2229                           
  2230  007C                     ??_setup:	
  2231                           ; 1 bytes @ 0x4
  2232                           
  2233  007C                     ??_main:	
  2234                           ; 1 bytes @ 0x4
  2235                           
  2236                           
  2237                           	psect	maintext
  2238  00B5                     __pmaintext:	
  2239                           ; 1 bytes @ 0x4
  2240 ;;
  2241 ;;Main: autosize = 0, tempsize = 0, incstack = 0, save=0
  2242 ;;
  2243 ;; *************** function _main *****************
  2244 ;; Defined at:
  2245 ;;		line 40 in file "main.c"
  2246 ;; Parameters:    Size  Location     Type
  2247 ;;		None
  2248 ;; Auto vars:     Size  Location     Type
  2249 ;;		None
  2250 ;; Return value:  Size  Location     Type
  2251 ;;                  1    wreg      void 
  2252 ;; Registers used:
  2253 ;;		wreg, status,2, status,0, pclath, cstack
  2254 ;; Tracked objects:
  2255 ;;		On entry : B1F/0
  2256 ;;		On exit  : 0/0
  2257 ;;		Unchanged: 0/0
  2258 ;; Data sizes:     COMMON   BANK0   BANK1   BANK2   BANK3   BANK4   BANK5   BANK6   BANK7   BANK8   BANK9  BANK10  BANK1
      +1  BANK12
  2259 ;;      Params:         0       0       0       0       0       0       0       0       0       0       0       0       
      +0       0
  2260 ;;      Locals:         0       0       0       0       0       0       0       0       0       0       0       0       
      +0       0
  2261 ;;      Temps:          0       0       0       0       0       0       0       0       0       0       0       0       
      +0       0
  2262 ;;      Totals:         0       0       0       0       0       0       0       0       0       0       0       0       
      +0       0
  2263 ;;Total ram usage:        0 bytes
  2264 ;; Hardware stack levels required when called:    7
  2265 ;; This function calls:
  2266 ;;		_setup
  2267 ;; This function is called by:
  2268 ;;		Startup code after reset
  2269 ;; This function uses a non-reentrant model
  2270 ;;
  2271                           
  2272                           
  2273                           ;psect for function _main
  2274  00B5                     _main:	
  2275  00B5                     l1004:	
  2276                           ;incstack = 0
  2277                           ; Regs used in _main: [wreg+status,2+status,0+pclath+cstack]
  2278                           
  2279                           
  2280                           ;main.c: 42:     setup();
  2281  00B5  3180  2072  3180   	fcall	_setup
  2282  00B8                     l30:	
  2283                           ;main.c: 43:     while(1)
  2284                           
  2285  00B8                     l31:	
  2286                           ;main.c: 44:     {;main.c: 46:     }
  2287                           
  2288  00B8  28B8               	goto	l30
  2289  00B9  3180  2819         	ljmp	start
  2290  00BB                     __end_of_main:	
  2291                           
  2292                           	psect	text1
  2293  0072                     __ptext1:	
  2294 ;; *************** function _setup *****************
  2295 ;; Defined at:
  2296 ;;		line 18 in file "main.c"
  2297 ;; Parameters:    Size  Location     Type
  2298 ;;		None
  2299 ;; Auto vars:     Size  Location     Type
  2300 ;;		None
  2301 ;; Return value:  Size  Location     Type
  2302 ;;                  1    wreg      void 
  2303 ;; Registers used:
  2304 ;;		wreg, status,2, status,0, pclath, cstack
  2305 ;; Tracked objects:
  2306 ;;		On entry : 0/0
  2307 ;;		On exit  : 0/0
  2308 ;;		Unchanged: 0/0
  2309 ;; Data sizes:     COMMON   BANK0   BANK1   BANK2   BANK3   BANK4   BANK5   BANK6   BANK7   BANK8   BANK9  BANK10  BANK1
      +1  BANK12
  2310 ;;      Params:         0       0       0       0       0       0       0       0       0       0       0       0       
      +0       0
  2311 ;;      Locals:         0       0       0       0       0       0       0       0       0       0       0       0       
      +0       0
  2312 ;;      Temps:          0       0       0       0       0       0       0       0       0       0       0       0       
      +0       0
  2313 ;;      Totals:         0       0       0       0       0       0       0       0       0       0       0       0       
      +0       0
  2314 ;;Total ram usage:        0 bytes
  2315 ;; Hardware stack levels used:    1
  2316 ;; Hardware stack levels required when called:    6
  2317 ;; This function calls:
  2318 ;;		_SYSTEM_Initialize
  2319 ;;		_TMR1_Initialize
  2320 ;;		_TMR1_StartTimer
  2321 ;; This function is called by:
  2322 ;;		_main
  2323 ;; This function uses a non-reentrant model
  2324 ;;
  2325                           
  2326                           
  2327                           ;psect for function _setup
  2328  0072                     _setup:	
  2329  0072                     l978:	
  2330                           ;incstack = 0
  2331                           ; Regs used in _setup: [wreg+status,2+status,0+pclath+cstack]
  2332                           
  2333                           
  2334                           ;main.c: 21:     SYSTEM_Initialize();
  2335  0072  3180  2094  3180   	fcall	_SYSTEM_Initialize
  2336  0075                     l980:	
  2337                           
  2338                           ;main.c: 24:     (INTCONbits.GIE = 1);
  2339  0075  178B               	bsf	11,7	;volatile
  2340  0076                     l982:	
  2341                           
  2342                           ;main.c: 27:     (INTCONbits.PEIE = 1);
  2343  0076  170B               	bsf	11,6	;volatile
  2344                           
  2345                           ;main.c: 30:     TMR1_Initialize();
  2346  0077  3180  205A  3180   	fcall	_TMR1_Initialize
  2347  007A                     l984:	
  2348                           
  2349                           ;main.c: 31:     TMR1_StartTimer();
  2350  007A  3180  20C4  3180   	fcall	_TMR1_StartTimer
  2351  007D                     l986:	
  2352  007D  0022               	movlb	2	; select bank2
  2353  007E  108E               	bcf	14,1	;volatile
  2354  007F                     l988:	
  2355  007F  110E               	bcf	14,2	;volatile
  2356  0080                     l990:	
  2357  0080  118E               	bcf	14,3	;volatile
  2358  0081                     l992:	
  2359  0081  120E               	bcf	14,4	;volatile
  2360  0082                     l25:	
  2361  0082  0008               	return
  2362  0083                     __end_of_setup:	
  2363                           
  2364                           	psect	text2
  2365  00C4                     __ptext2:	
  2366 ;; *************** function _TMR1_StartTimer *****************
  2367 ;; Defined at:
  2368 ;;		line 93 in file "mcc_generated_files/tmr1.c"
  2369 ;; Parameters:    Size  Location     Type
  2370 ;;		None
  2371 ;; Auto vars:     Size  Location     Type
  2372 ;;		None
  2373 ;; Return value:  Size  Location     Type
  2374 ;;                  1    wreg      void 
  2375 ;; Registers used:
  2376 ;;		None
  2377 ;; Tracked objects:
  2378 ;;		On entry : 0/0
  2379 ;;		On exit  : 0/0
  2380 ;;		Unchanged: 0/0
  2381 ;; Data sizes:     COMMON   BANK0   BANK1   BANK2   BANK3   BANK4   BANK5   BANK6   BANK7   BANK8   BANK9  BANK10  BANK1
      +1  BANK12
  2382 ;;      Params:         0       0       0       0       0       0       0       0       0       0       0       0       
      +0       0
  2383 ;;      Locals:         0       0       0       0       0       0       0       0       0       0       0       0       
      +0       0
  2384 ;;      Temps:          0       0       0       0       0       0       0       0       0       0       0       0       
      +0       0
  2385 ;;      Totals:         0       0       0       0       0       0       0       0       0       0       0       0       
      +0       0
  2386 ;;Total ram usage:        0 bytes
  2387 ;; Hardware stack levels used:    1
  2388 ;; Hardware stack levels required when called:    3
  2389 ;; This function calls:
  2390 ;;		Nothing
  2391 ;; This function is called by:
  2392 ;;		_setup
  2393 ;; This function uses a non-reentrant model
  2394 ;;
  2395                           
  2396                           
  2397                           ;psect for function _TMR1_StartTimer
  2398  00C4                     _TMR1_StartTimer:	
  2399  00C4                     l870:	
  2400                           ;incstack = 0
  2401                           ; Regs used in _TMR1_StartTimer: []
  2402                           
  2403                           
  2404                           ;mcc_generated_files/tmr1.c: 96:     T1CONbits.TMR1ON = 1;
  2405  00C4  0020               	movlb	0	; select bank0
  2406  00C5  141B               	bsf	27,0	;volatile
  2407  00C6                     l172:	
  2408  00C6  0008               	return
  2409  00C7                     __end_of_TMR1_StartTimer:	
  2410                           
  2411                           	psect	text3
  2412  0094                     __ptext3:	
  2413 ;; *************** function _SYSTEM_Initialize *****************
  2414 ;; Defined at:
  2415 ;;		line 50 in file "mcc_generated_files/mcc.c"
  2416 ;; Parameters:    Size  Location     Type
  2417 ;;		None
  2418 ;; Auto vars:     Size  Location     Type
  2419 ;;		None
  2420 ;; Return value:  Size  Location     Type
  2421 ;;                  1    wreg      void 
  2422 ;; Registers used:
  2423 ;;		wreg, status,2, status,0, pclath, cstack
  2424 ;; Tracked objects:
  2425 ;;		On entry : 0/0
  2426 ;;		On exit  : 0/0
  2427 ;;		Unchanged: 0/0
  2428 ;; Data sizes:     COMMON   BANK0   BANK1   BANK2   BANK3   BANK4   BANK5   BANK6   BANK7   BANK8   BANK9  BANK10  BANK1
      +1  BANK12
  2429 ;;      Params:         0       0       0       0       0       0       0       0       0       0       0       0       
      +0       0
  2430 ;;      Locals:         0       0       0       0       0       0       0       0       0       0       0       0       
      +0       0
  2431 ;;      Temps:          0       0       0       0       0       0       0       0       0       0       0       0       
      +0       0
  2432 ;;      Totals:         0       0       0       0       0       0       0       0       0       0       0       0       
      +0       0
  2433 ;;Total ram usage:        0 bytes
  2434 ;; Hardware stack levels used:    1
  2435 ;; Hardware stack levels required when called:    5
  2436 ;; This function calls:
  2437 ;;		_OSCILLATOR_Initialize
  2438 ;;		_PIN_MANAGER_Initialize
  2439 ;;		_PMD_Initialize
  2440 ;;		_TMR1_Initialize
  2441 ;;		_WDT_Initialize
  2442 ;; This function is called by:
  2443 ;;		_setup
  2444 ;; This function uses a non-reentrant model
  2445 ;;
  2446                           
  2447                           
  2448                           ;psect for function _SYSTEM_Initialize
  2449  0094                     _SYSTEM_Initialize:	
  2450  0094                     l954:	
  2451                           ;incstack = 0
  2452                           ; Regs used in _SYSTEM_Initialize: [wreg+status,2+status,0+pclath+cstack]
  2453                           
  2454                           
  2455                           ;mcc_generated_files/mcc.c: 53:     PMD_Initialize();
  2456  0094  3180  20AD  3180   	fcall	_PMD_Initialize
  2457  0097                     l956:	
  2458                           
  2459                           ;mcc_generated_files/mcc.c: 54:     PIN_MANAGER_Initialize();
  2460  0097  3180  2023  3180   	fcall	_PIN_MANAGER_Initialize
  2461  009A                     l958:	
  2462                           
  2463                           ;mcc_generated_files/mcc.c: 55:     OSCILLATOR_Initialize();
  2464  009A  3180  20A4  3180   	fcall	_OSCILLATOR_Initialize
  2465  009D                     l960:	
  2466                           
  2467                           ;mcc_generated_files/mcc.c: 56:     WDT_Initialize();
  2468  009D  3180  20C0  3180   	fcall	_WDT_Initialize
  2469  00A0                     l962:	
  2470                           
  2471                           ;mcc_generated_files/mcc.c: 57:     TMR1_Initialize();
  2472  00A0  3180  205A  3180   	fcall	_TMR1_Initialize
  2473  00A3                     l74:	
  2474  00A3  0008               	return
  2475  00A4                     __end_of_SYSTEM_Initialize:	
  2476                           
  2477                           	psect	text4
  2478  00C0                     __ptext4:	
  2479 ;; *************** function _WDT_Initialize *****************
  2480 ;; Defined at:
  2481 ;;		line 74 in file "mcc_generated_files/mcc.c"
  2482 ;; Parameters:    Size  Location     Type
  2483 ;;		None
  2484 ;; Auto vars:     Size  Location     Type
  2485 ;;		None
  2486 ;; Return value:  Size  Location     Type
  2487 ;;                  1    wreg      void 
  2488 ;; Registers used:
  2489 ;;		wreg
  2490 ;; Tracked objects:
  2491 ;;		On entry : 0/0
  2492 ;;		On exit  : 0/0
  2493 ;;		Unchanged: 0/0
  2494 ;; Data sizes:     COMMON   BANK0   BANK1   BANK2   BANK3   BANK4   BANK5   BANK6   BANK7   BANK8   BANK9  BANK10  BANK1
      +1  BANK12
  2495 ;;      Params:         0       0       0       0       0       0       0       0       0       0       0       0       
      +0       0
  2496 ;;      Locals:         0       0       0       0       0       0       0       0       0       0       0       0       
      +0       0
  2497 ;;      Temps:          0       0       0       0       0       0       0       0       0       0       0       0       
      +0       0
  2498 ;;      Totals:         0       0       0       0       0       0       0       0       0       0       0       0       
      +0       0
  2499 ;;Total ram usage:        0 bytes
  2500 ;; Hardware stack levels used:    1
  2501 ;; Hardware stack levels required when called:    3
  2502 ;; This function calls:
  2503 ;;		Nothing
  2504 ;; This function is called by:
  2505 ;;		_SYSTEM_Initialize
  2506 ;; This function uses a non-reentrant model
  2507 ;;
  2508                           
  2509                           
  2510                           ;psect for function _WDT_Initialize
  2511  00C0                     _WDT_Initialize:	
  2512  00C0                     l858:	
  2513                           ;incstack = 0
  2514                           ; Regs used in _WDT_Initialize: [wreg]
  2515                           
  2516                           
  2517                           ;mcc_generated_files/mcc.c: 77:     WDTCON = 0x16;
  2518  00C0  3016               	movlw	22
  2519  00C1  0021               	movlb	1	; select bank1
  2520  00C2  0097               	movwf	23	;volatile
  2521  00C3                     l80:	
  2522  00C3  0008               	return
  2523  00C4                     __end_of_WDT_Initialize:	
  2524                           
  2525                           	psect	text5
  2526  005A                     __ptext5:	
  2527 ;; *************** function _TMR1_Initialize *****************
  2528 ;; Defined at:
  2529 ;;		line 64 in file "mcc_generated_files/tmr1.c"
  2530 ;; Parameters:    Size  Location     Type
  2531 ;;		None
  2532 ;; Auto vars:     Size  Location     Type
  2533 ;;		None
  2534 ;; Return value:  Size  Location     Type
  2535 ;;                  1    wreg      void 
  2536 ;; Registers used:
  2537 ;;		wreg, status,2, status,0, pclath, cstack
  2538 ;; Tracked objects:
  2539 ;;		On entry : 0/0
  2540 ;;		On exit  : 0/0
  2541 ;;		Unchanged: 0/0
  2542 ;; Data sizes:     COMMON   BANK0   BANK1   BANK2   BANK3   BANK4   BANK5   BANK6   BANK7   BANK8   BANK9  BANK10  BANK1
      +1  BANK12
  2543 ;;      Params:         0       0       0       0       0       0       0       0       0       0       0       0       
      +0       0
  2544 ;;      Locals:         0       0       0       0       0       0       0       0       0       0       0       0       
      +0       0
  2545 ;;      Temps:          0       0       0       0       0       0       0       0       0       0       0       0       
      +0       0
  2546 ;;      Totals:         0       0       0       0       0       0       0       0       0       0       0       0       
      +0       0
  2547 ;;Total ram usage:        0 bytes
  2548 ;; Hardware stack levels used:    1
  2549 ;; Hardware stack levels required when called:    4
  2550 ;; This function calls:
  2551 ;;		_TMR1_SetInterruptHandler
  2552 ;; This function is called by:
  2553 ;;		_setup
  2554 ;;		_SYSTEM_Initialize
  2555 ;; This function uses a non-reentrant model
  2556 ;;
  2557                           
  2558                           
  2559                           ;psect for function _TMR1_Initialize
  2560  005A                     _TMR1_Initialize:	
  2561  005A                     l938:	
  2562                           ;incstack = 0
  2563                           ; Regs used in _TMR1_Initialize: [wreg+status,2+status,0+pclath+cstack]
  2564                           
  2565                           
  2566                           ;mcc_generated_files/tmr1.c: 69:     T1GCON = 0x00;
  2567  005A  0020               	movlb	0	; select bank0
  2568  005B  019C               	clrf	28	;volatile
  2569  005C                     l940:	
  2570                           
  2571                           ;mcc_generated_files/tmr1.c: 72:     TMR1H = 0xFF;
  2572  005C  30FF               	movlw	255
  2573  005D  009A               	movwf	26	;volatile
  2574  005E                     l942:	
  2575                           
  2576                           ;mcc_generated_files/tmr1.c: 75:     TMR1L = 0x06;
  2577  005E  3006               	movlw	6
  2578  005F  0099               	movwf	25	;volatile
  2579  0060                     l944:	
  2580                           
  2581                           ;mcc_generated_files/tmr1.c: 78:     PIR1bits.TMR1IF = 0;
  2582  0060  1011               	bcf	17,0	;volatile
  2583  0061                     l946:	
  2584                           
  2585                           ;mcc_generated_files/tmr1.c: 81:     timer1ReloadVal=(uint16_t)((TMR1H << 8) | TMR1L);
  2586  0061  081A               	movf	26,w	;volatile
  2587  0062  00F3               	movwf	_timer1ReloadVal+1	;volatile
  2588  0063  0819               	movf	25,w	;volatile
  2589  0064  00F2               	movwf	_timer1ReloadVal	;volatile
  2590  0065                     l948:	
  2591                           
  2592                           ;mcc_generated_files/tmr1.c: 84:     PIE1bits.TMR1IE = 1;
  2593  0065  0021               	movlb	1	; select bank1
  2594  0066  1411               	bsf	17,0	;volatile
  2595  0067                     l950:	
  2596                           
  2597                           ;mcc_generated_files/tmr1.c: 87:     TMR1_SetInterruptHandler(TMR1_DefaultInterruptHandl
      +                          er);
  2598  0067  30C7               	movlw	low _TMR1_DefaultInterruptHandler
  2599  0068  00FA               	movwf	TMR1_SetInterruptHandler@InterruptHandler
  2600  0069  3000               	movlw	high _TMR1_DefaultInterruptHandler
  2601  006A  00FB               	movwf	TMR1_SetInterruptHandler@InterruptHandler+1
  2602  006B  3180  20BB  3180   	fcall	_TMR1_SetInterruptHandler
  2603  006E                     l952:	
  2604                           
  2605                           ;mcc_generated_files/tmr1.c: 90:     T1CON = 0x01;
  2606  006E  3001               	movlw	1
  2607  006F  0020               	movlb	0	; select bank0
  2608  0070  009B               	movwf	27	;volatile
  2609  0071                     l169:	
  2610  0071  0008               	return
  2611  0072                     __end_of_TMR1_Initialize:	
  2612                           
  2613                           	psect	text6
  2614  00BB                     __ptext6:	
  2615 ;; *************** function _TMR1_SetInterruptHandler *****************
  2616 ;; Defined at:
  2617 ;;		line 173 in file "mcc_generated_files/tmr1.c"
  2618 ;; Parameters:    Size  Location     Type
  2619 ;;  InterruptHan    2    2[COMMON] PTR FTN()void 
  2620 ;;		 -> TMR1_DefaultInterruptHandler(1), 
  2621 ;; Auto vars:     Size  Location     Type
  2622 ;;		None
  2623 ;; Return value:  Size  Location     Type
  2624 ;;                  1    wreg      void 
  2625 ;; Registers used:
  2626 ;;		wreg
  2627 ;; Tracked objects:
  2628 ;;		On entry : 0/0
  2629 ;;		On exit  : 0/0
  2630 ;;		Unchanged: 0/0
  2631 ;; Data sizes:     COMMON   BANK0   BANK1   BANK2   BANK3   BANK4   BANK5   BANK6   BANK7   BANK8   BANK9  BANK10  BANK1
      +1  BANK12
  2632 ;;      Params:         2       0       0       0       0       0       0       0       0       0       0       0       
      +0       0
  2633 ;;      Locals:         0       0       0       0       0       0       0       0       0       0       0       0       
      +0       0
  2634 ;;      Temps:          0       0       0       0       0       0       0       0       0       0       0       0       
      +0       0
  2635 ;;      Totals:         2       0       0       0       0       0       0       0       0       0       0       0       
      +0       0
  2636 ;;Total ram usage:        2 bytes
  2637 ;; Hardware stack levels used:    1
  2638 ;; Hardware stack levels required when called:    3
  2639 ;; This function calls:
  2640 ;;		Nothing
  2641 ;; This function is called by:
  2642 ;;		_TMR1_Initialize
  2643 ;; This function uses a non-reentrant model
  2644 ;;
  2645                           
  2646                           
  2647                           ;psect for function _TMR1_SetInterruptHandler
  2648  00BB                     _TMR1_SetInterruptHandler:	
  2649  00BB                     l936:	
  2650                           ;incstack = 0
  2651                           ; Regs used in _TMR1_SetInterruptHandler: [wreg]
  2652                           
  2653                           
  2654                           ;mcc_generated_files/tmr1.c: 174:     TMR1_InterruptHandler = InterruptHandler;
  2655  00BB  087B               	movf	TMR1_SetInterruptHandler@InterruptHandler+1,w
  2656  00BC  00F1               	movwf	_TMR1_InterruptHandler+1
  2657  00BD  087A               	movf	TMR1_SetInterruptHandler@InterruptHandler,w
  2658  00BE  00F0               	movwf	_TMR1_InterruptHandler
  2659  00BF                     l199:	
  2660  00BF  0008               	return
  2661  00C0                     __end_of_TMR1_SetInterruptHandler:	
  2662                           
  2663                           	psect	text7
  2664  00AD                     __ptext7:	
  2665 ;; *************** function _PMD_Initialize *****************
  2666 ;; Defined at:
  2667 ;;		line 80 in file "mcc_generated_files/mcc.c"
  2668 ;; Parameters:    Size  Location     Type
  2669 ;;		None
  2670 ;; Auto vars:     Size  Location     Type
  2671 ;;		None
  2672 ;; Return value:  Size  Location     Type
  2673 ;;                  1    wreg      void 
  2674 ;; Registers used:
  2675 ;;		status,2
  2676 ;; Tracked objects:
  2677 ;;		On entry : 0/0
  2678 ;;		On exit  : 0/0
  2679 ;;		Unchanged: 0/0
  2680 ;; Data sizes:     COMMON   BANK0   BANK1   BANK2   BANK3   BANK4   BANK5   BANK6   BANK7   BANK8   BANK9  BANK10  BANK1
      +1  BANK12
  2681 ;;      Params:         0       0       0       0       0       0       0       0       0       0       0       0       
      +0       0
  2682 ;;      Locals:         0       0       0       0       0       0       0       0       0       0       0       0       
      +0       0
  2683 ;;      Temps:          0       0       0       0       0       0       0       0       0       0       0       0       
      +0       0
  2684 ;;      Totals:         0       0       0       0       0       0       0       0       0       0       0       0       
      +0       0
  2685 ;;Total ram usage:        0 bytes
  2686 ;; Hardware stack levels used:    1
  2687 ;; Hardware stack levels required when called:    3
  2688 ;; This function calls:
  2689 ;;		Nothing
  2690 ;; This function is called by:
  2691 ;;		_SYSTEM_Initialize
  2692 ;; This function uses a non-reentrant model
  2693 ;;
  2694                           
  2695                           
  2696                           ;psect for function _PMD_Initialize
  2697  00AD                     _PMD_Initialize:	
  2698  00AD                     l830:	
  2699                           ;incstack = 0
  2700                           ; Regs used in _PMD_Initialize: [status,2]
  2701                           
  2702                           
  2703                           ;mcc_generated_files/mcc.c: 83:     PMD0 = 0x00;
  2704  00AD  0032               	movlb	18	; select bank18
  2705  00AE  0191               	clrf	17	;volatile
  2706                           
  2707                           ;mcc_generated_files/mcc.c: 85:     PMD1 = 0x00;
  2708  00AF  0192               	clrf	18	;volatile
  2709                           
  2710                           ;mcc_generated_files/mcc.c: 87:     PMD2 = 0x00;
  2711  00B0  0193               	clrf	19	;volatile
  2712                           
  2713                           ;mcc_generated_files/mcc.c: 89:     PMD3 = 0x00;
  2714  00B1  0194               	clrf	20	;volatile
  2715                           
  2716                           ;mcc_generated_files/mcc.c: 91:     PMD4 = 0x00;
  2717  00B2  0195               	clrf	21	;volatile
  2718                           
  2719                           ;mcc_generated_files/mcc.c: 93:     PMD5 = 0x00;
  2720  00B3  0196               	clrf	22	;volatile
  2721  00B4                     l83:	
  2722  00B4  0008               	return
  2723  00B5                     __end_of_PMD_Initialize:	
  2724                           
  2725                           	psect	text8
  2726  0023                     __ptext8:	
  2727 ;; *************** function _PIN_MANAGER_Initialize *****************
  2728 ;; Defined at:
  2729 ;;		line 55 in file "mcc_generated_files/pin_manager.c"
  2730 ;; Parameters:    Size  Location     Type
  2731 ;;		None
  2732 ;; Auto vars:     Size  Location     Type
  2733 ;;		None
  2734 ;; Return value:  Size  Location     Type
  2735 ;;                  1    wreg      void 
  2736 ;; Registers used:
  2737 ;;		wreg, status,2
  2738 ;; Tracked objects:
  2739 ;;		On entry : 0/0
  2740 ;;		On exit  : 0/0
  2741 ;;		Unchanged: 0/0
  2742 ;; Data sizes:     COMMON   BANK0   BANK1   BANK2   BANK3   BANK4   BANK5   BANK6   BANK7   BANK8   BANK9  BANK10  BANK1
      +1  BANK12
  2743 ;;      Params:         0       0       0       0       0       0       0       0       0       0       0       0       
      +0       0
  2744 ;;      Locals:         0       0       0       0       0       0       0       0       0       0       0       0       
      +0       0
  2745 ;;      Temps:          0       0       0       0       0       0       0       0       0       0       0       0       
      +0       0
  2746 ;;      Totals:         0       0       0       0       0       0       0       0       0       0       0       0       
      +0       0
  2747 ;;Total ram usage:        0 bytes
  2748 ;; Hardware stack levels used:    1
  2749 ;; Hardware stack levels required when called:    3
  2750 ;; This function calls:
  2751 ;;		Nothing
  2752 ;; This function is called by:
  2753 ;;		_SYSTEM_Initialize
  2754 ;; This function uses a non-reentrant model
  2755 ;;
  2756                           
  2757                           
  2758                           ;psect for function _PIN_MANAGER_Initialize
  2759  0023                     _PIN_MANAGER_Initialize:	
  2760  0023                     l832:	
  2761                           ;incstack = 0
  2762                           ; Regs used in _PIN_MANAGER_Initialize: [wreg+status,2]
  2763                           
  2764                           
  2765                           ;mcc_generated_files/pin_manager.c: 60:     LATA = 0x00;
  2766  0023  0022               	movlb	2	; select bank2
  2767  0024  018C               	clrf	12	;volatile
  2768                           
  2769                           ;mcc_generated_files/pin_manager.c: 61:     LATC = 0x00;
  2770  0025  018E               	clrf	14	;volatile
  2771  0026                     l834:	
  2772                           
  2773                           ;mcc_generated_files/pin_manager.c: 66:     TRISA = 0x37;
  2774  0026  3037               	movlw	55
  2775  0027  0021               	movlb	1	; select bank1
  2776  0028  008C               	movwf	12	;volatile
  2777  0029                     l836:	
  2778                           
  2779                           ;mcc_generated_files/pin_manager.c: 67:     TRISC = 0x21;
  2780  0029  3021               	movlw	33
  2781  002A  008E               	movwf	14	;volatile
  2782  002B                     l838:	
  2783                           
  2784                           ;mcc_generated_files/pin_manager.c: 72:     ANSELC = 0x21;
  2785  002B  3021               	movlw	33
  2786  002C  0023               	movlb	3	; select bank3
  2787  002D  008E               	movwf	14	;volatile
  2788  002E                     l840:	
  2789                           
  2790                           ;mcc_generated_files/pin_manager.c: 73:     ANSELA = 0x37;
  2791  002E  3037               	movlw	55
  2792  002F  008C               	movwf	12	;volatile
  2793                           
  2794                           ;mcc_generated_files/pin_manager.c: 78:     WPUA = 0x00;
  2795  0030  0024               	movlb	4	; select bank4
  2796  0031  018C               	clrf	12	;volatile
  2797                           
  2798                           ;mcc_generated_files/pin_manager.c: 79:     WPUC = 0x00;
  2799  0032  018E               	clrf	14	;volatile
  2800                           
  2801                           ;mcc_generated_files/pin_manager.c: 84:     ODCONA = 0x00;
  2802  0033  0025               	movlb	5	; select bank5
  2803  0034  018C               	clrf	12	;volatile
  2804                           
  2805                           ;mcc_generated_files/pin_manager.c: 85:     ODCONC = 0x00;
  2806  0035  018E               	clrf	14	;volatile
  2807  0036                     l842:	
  2808                           
  2809                           ;mcc_generated_files/pin_manager.c: 90:     SLRCONA = 0x37;
  2810  0036  3037               	movlw	55
  2811  0037  0026               	movlb	6	; select bank6
  2812  0038  008C               	movwf	12	;volatile
  2813  0039                     l844:	
  2814                           
  2815                           ;mcc_generated_files/pin_manager.c: 91:     SLRCONC = 0x3F;
  2816  0039  303F               	movlw	63
  2817  003A  008E               	movwf	14	;volatile
  2818  003B                     l846:	
  2819                           
  2820                           ;mcc_generated_files/pin_manager.c: 96:     INLVLA = 0x3F;
  2821  003B  303F               	movlw	63
  2822  003C  0027               	movlb	7	; select bank7
  2823  003D  008C               	movwf	12	;volatile
  2824  003E                     l848:	
  2825                           
  2826                           ;mcc_generated_files/pin_manager.c: 97:     INLVLC = 0x3F;
  2827  003E  303F               	movlw	63
  2828  003F  008E               	movwf	14	;volatile
  2829  0040                     l114:	
  2830  0040  0008               	return
  2831  0041                     __end_of_PIN_MANAGER_Initialize:	
  2832                           
  2833                           	psect	text9
  2834  00A4                     __ptext9:	
  2835 ;; *************** function _OSCILLATOR_Initialize *****************
  2836 ;; Defined at:
  2837 ;;		line 60 in file "mcc_generated_files/mcc.c"
  2838 ;; Parameters:    Size  Location     Type
  2839 ;;		None
  2840 ;; Auto vars:     Size  Location     Type
  2841 ;;		None
  2842 ;; Return value:  Size  Location     Type
  2843 ;;                  1    wreg      void 
  2844 ;; Registers used:
  2845 ;;		wreg, status,2
  2846 ;; Tracked objects:
  2847 ;;		On entry : 0/0
  2848 ;;		On exit  : 0/0
  2849 ;;		Unchanged: 0/0
  2850 ;; Data sizes:     COMMON   BANK0   BANK1   BANK2   BANK3   BANK4   BANK5   BANK6   BANK7   BANK8   BANK9  BANK10  BANK1
      +1  BANK12
  2851 ;;      Params:         0       0       0       0       0       0       0       0       0       0       0       0       
      +0       0
  2852 ;;      Locals:         0       0       0       0       0       0       0       0       0       0       0       0       
      +0       0
  2853 ;;      Temps:          0       0       0       0       0       0       0       0       0       0       0       0       
      +0       0
  2854 ;;      Totals:         0       0       0       0       0       0       0       0       0       0       0       0       
      +0       0
  2855 ;;Total ram usage:        0 bytes
  2856 ;; Hardware stack levels used:    1
  2857 ;; Hardware stack levels required when called:    3
  2858 ;; This function calls:
  2859 ;;		Nothing
  2860 ;; This function is called by:
  2861 ;;		_SYSTEM_Initialize
  2862 ;; This function uses a non-reentrant model
  2863 ;;
  2864                           
  2865                           
  2866                           ;psect for function _OSCILLATOR_Initialize
  2867  00A4                     _OSCILLATOR_Initialize:	
  2868  00A4                     l850:	
  2869                           ;incstack = 0
  2870                           ; Regs used in _OSCILLATOR_Initialize: [wreg+status,2]
  2871                           
  2872                           
  2873                           ;mcc_generated_files/mcc.c: 63:     OSCCON1 = 0x62;
  2874  00A4  3062               	movlw	98
  2875  00A5  0032               	movlb	18	; select bank18
  2876  00A6  0099               	movwf	25	;volatile
  2877  00A7                     l852:	
  2878                           
  2879                           ;mcc_generated_files/mcc.c: 65:     OSCCON3 = 0x00;
  2880  00A7  019B               	clrf	27	;volatile
  2881  00A8                     l854:	
  2882                           
  2883                           ;mcc_generated_files/mcc.c: 67:     OSCEN = 0x00;
  2884  00A8  019D               	clrf	29	;volatile
  2885                           
  2886                           ;mcc_generated_files/mcc.c: 69:     OSCFRQ = 0x03;
  2887  00A9  3003               	movlw	3
  2888  00AA  009F               	movwf	31	;volatile
  2889  00AB                     l856:	
  2890                           
  2891                           ;mcc_generated_files/mcc.c: 71:     OSCTUNE = 0x00;
  2892  00AB  019E               	clrf	30	;volatile
  2893  00AC                     l77:	
  2894  00AC  0008               	return
  2895  00AD                     __end_of_OSCILLATOR_Initialize:	
  2896                           
  2897                           	psect	intentry
  2898  0004                     __pintentry:	
  2899 ;; *************** function _INTERRUPT_InterruptManager *****************
  2900 ;; Defined at:
  2901 ;;		line 52 in file "mcc_generated_files/interrupt_manager.c"
  2902 ;; Parameters:    Size  Location     Type
  2903 ;;		None
  2904 ;; Auto vars:     Size  Location     Type
  2905 ;;		None
  2906 ;; Return value:  Size  Location     Type
  2907 ;;                  1    wreg      void 
  2908 ;; Registers used:
  2909 ;;		wreg, status,2, status,0, pclath, cstack
  2910 ;; Tracked objects:
  2911 ;;		On entry : 0/0
  2912 ;;		On exit  : 0/0
  2913 ;;		Unchanged: 0/0
  2914 ;; Data sizes:     COMMON   BANK0   BANK1   BANK2   BANK3   BANK4   BANK5   BANK6   BANK7   BANK8   BANK9  BANK10  BANK1
      +1  BANK12
  2915 ;;      Params:         0       0       0       0       0       0       0       0       0       0       0       0       
      +0       0
  2916 ;;      Locals:         0       0       0       0       0       0       0       0       0       0       0       0       
      +0       0
  2917 ;;      Temps:          0       0       0       0       0       0       0       0       0       0       0       0       
      +0       0
  2918 ;;      Totals:         0       0       0       0       0       0       0       0       0       0       0       0       
      +0       0
  2919 ;;Total ram usage:        0 bytes
  2920 ;; Hardware stack levels used:    1
  2921 ;; Hardware stack levels required when called:    2
  2922 ;; This function calls:
  2923 ;;		_TMR1_ISR
  2924 ;; This function is called by:
  2925 ;;		Interrupt level 1
  2926 ;; This function uses a non-reentrant model
  2927 ;;
  2928                           
  2929  0004                     _INTERRUPT_InterruptManager:	
  2930                           
  2931                           ;incstack = 0
  2932  0004  147E               	bsf	int$flags,0	;set compiler interrupt flag (level 1)
  2933                           
  2934                           ; Regs used in _INTERRUPT_InterruptManager: [wreg+status,2+status,0+pclath+cstack]
  2935  0005  3180               	pagesel	$
  2936  0006                     i1l1006:	
  2937                           
  2938                           ;mcc_generated_files/interrupt_manager.c: 55:     if(INTCONbits.PEIE == 1)
  2939  0006  1F0B               	btfss	11,6	;volatile
  2940  0007  2809               	goto	u8_21
  2941  0008  280A               	goto	u8_20
  2942  0009                     u8_21:	
  2943  0009  2817               	goto	i1l138
  2944  000A                     u8_20:	
  2945  000A                     i1l1008:	
  2946                           
  2947                           ;mcc_generated_files/interrupt_manager.c: 56:     {;mcc_generated_files/interrupt_manage
      +                          r.c: 57:         if(PIE1bits.TMR1IE == 1 && PIR1bits.TMR1IF == 1)
  2948  000A  0021               	movlb	1	; select bank1
  2949  000B  1C11               	btfss	17,0	;volatile
  2950  000C  280E               	goto	u9_21
  2951  000D  280F               	goto	u9_20
  2952  000E                     u9_21:	
  2953  000E  2817               	goto	i1l138
  2954  000F                     u9_20:	
  2955  000F                     i1l1010:	
  2956  000F  0020               	movlb	0	; select bank0
  2957  0010  1C11               	btfss	17,0	;volatile
  2958  0011  2813               	goto	u10_21
  2959  0012  2814               	goto	u10_20
  2960  0013                     u10_21:	
  2961  0013  2817               	goto	i1l138
  2962  0014                     u10_20:	
  2963  0014                     i1l1012:	
  2964                           
  2965                           ;mcc_generated_files/interrupt_manager.c: 58:         {;mcc_generated_files/interrupt_ma
      +                          nager.c: 59:             TMR1_ISR();
  2966  0014  3180  2041  3180   	fcall	_TMR1_ISR
  2967  0017                     i1l138:	
  2968                           ;mcc_generated_files/interrupt_manager.c: 60:         }
  2969                           
  2970  0017  107E               	bcf	int$flags,0	;clear compiler interrupt flag (level 1)
  2971  0018  0009               	retfie
  2972  0019                     __end_of_INTERRUPT_InterruptManager:	
  2973                           
  2974                           	psect	text11
  2975  0041                     __ptext11:	
  2976 ;; *************** function _TMR1_ISR *****************
  2977 ;; Defined at:
  2978 ;;		line 157 in file "mcc_generated_files/tmr1.c"
  2979 ;; Parameters:    Size  Location     Type
  2980 ;;		None
  2981 ;; Auto vars:     Size  Location     Type
  2982 ;;		None
  2983 ;; Return value:  Size  Location     Type
  2984 ;;                  1    wreg      void 
  2985 ;; Registers used:
  2986 ;;		wreg, status,2, status,0, pclath, cstack
  2987 ;; Tracked objects:
  2988 ;;		On entry : 0/0
  2989 ;;		On exit  : 0/0
  2990 ;;		Unchanged: 0/0
  2991 ;; Data sizes:     COMMON   BANK0   BANK1   BANK2   BANK3   BANK4   BANK5   BANK6   BANK7   BANK8   BANK9  BANK10  BANK1
      +1  BANK12
  2992 ;;      Params:         0       0       0       0       0       0       0       0       0       0       0       0       
      +0       0
  2993 ;;      Locals:         0       0       0       0       0       0       0       0       0       0       0       0       
      +0       0
  2994 ;;      Temps:          0       0       0       0       0       0       0       0       0       0       0       0       
      +0       0
  2995 ;;      Totals:         0       0       0       0       0       0       0       0       0       0       0       0       
      +0       0
  2996 ;;Total ram usage:        0 bytes
  2997 ;; Hardware stack levels used:    1
  2998 ;; Hardware stack levels required when called:    1
  2999 ;; This function calls:
  3000 ;;		Absolute function
  3001 ;;		_TMR1_DefaultInterruptHandler
  3002 ;;		_TMR1_WriteTimer
  3003 ;; This function is called by:
  3004 ;;		_INTERRUPT_InterruptManager
  3005 ;; This function uses a non-reentrant model
  3006 ;;
  3007                           
  3008                           
  3009                           ;psect for function _TMR1_ISR
  3010  0041                     _TMR1_ISR:	
  3011  0041                     i1l994:	
  3012                           ;incstack = 0
  3013                           ; Regs used in _TMR1_ISR: [wreg+status,2+status,0+pclath+cstack]
  3014                           
  3015                           
  3016                           ;mcc_generated_files/tmr1.c: 161:     PIR1bits.TMR1IF = 0;
  3017  0041  0020               	movlb	0	; select bank0
  3018  0042  1011               	bcf	17,0	;volatile
  3019  0043                     i1l996:	
  3020                           
  3021                           ;mcc_generated_files/tmr1.c: 162:     TMR1_WriteTimer(timer1ReloadVal);
  3022  0043  0873               	movf	_timer1ReloadVal+1,w	;volatile
  3023  0044  00F9               	movwf	TMR1_WriteTimer@timerVal+1
  3024  0045  0872               	movf	_timer1ReloadVal,w	;volatile
  3025  0046  00F8               	movwf	TMR1_WriteTimer@timerVal
  3026  0047  3180  2083  3180   	fcall	_TMR1_WriteTimer
  3027  004A                     i1l998:	
  3028                           
  3029                           ;mcc_generated_files/tmr1.c: 164:     cur_ms++;
  3030  004A  3001               	movlw	1
  3031  004B  07F6               	addwf	_cur_ms,f
  3032  004C  3000               	movlw	0
  3033  004D  3DF7               	addwfc	_cur_ms+1,f
  3034  004E                     i1l1000:	
  3035                           
  3036                           ;mcc_generated_files/tmr1.c: 166:     if(TMR1_InterruptHandler)
  3037  004E  0870               	movf	_TMR1_InterruptHandler,w
  3038  004F  0471               	iorwf	_TMR1_InterruptHandler+1,w
  3039  0050  1903               	btfsc	3,2
  3040  0051  2853               	goto	u7_21
  3041  0052  2854               	goto	u7_20
  3042  0053                     u7_21:	
  3043  0053  2859               	goto	i1l196
  3044  0054                     u7_20:	
  3045  0054                     i1l1002:	
  3046                           
  3047                           ;mcc_generated_files/tmr1.c: 167:     {;mcc_generated_files/tmr1.c: 168:         TMR1_In
      +                          terruptHandler();
  3048  0054  0871               	movf	_TMR1_InterruptHandler+1,w
  3049  0055  008A               	movwf	10
  3050  0056  0870               	movf	_TMR1_InterruptHandler,w
  3051  0057  000A               	callw
  3052  0058  3180               	pagesel	$
  3053  0059                     i1l196:	
  3054  0059  0008               	return
  3055  005A                     __end_of_TMR1_ISR:	
  3056                           
  3057                           	psect	text12
  3058  0083                     __ptext12:	
  3059 ;; *************** function _TMR1_WriteTimer *****************
  3060 ;; Defined at:
  3061 ;;		line 120 in file "mcc_generated_files/tmr1.c"
  3062 ;; Parameters:    Size  Location     Type
  3063 ;;  timerVal        2    0[COMMON] unsigned short 
  3064 ;; Auto vars:     Size  Location     Type
  3065 ;;		None
  3066 ;; Return value:  Size  Location     Type
  3067 ;;                  1    wreg      void 
  3068 ;; Registers used:
  3069 ;;		wreg, status,2
  3070 ;; Tracked objects:
  3071 ;;		On entry : 0/0
  3072 ;;		On exit  : 0/0
  3073 ;;		Unchanged: 0/0
  3074 ;; Data sizes:     COMMON   BANK0   BANK1   BANK2   BANK3   BANK4   BANK5   BANK6   BANK7   BANK8   BANK9  BANK10  BANK1
      +1  BANK12
  3075 ;;      Params:         2       0       0       0       0       0       0       0       0       0       0       0       
      +0       0
  3076 ;;      Locals:         0       0       0       0       0       0       0       0       0       0       0       0       
      +0       0
  3077 ;;      Temps:          0       0       0       0       0       0       0       0       0       0       0       0       
      +0       0
  3078 ;;      Totals:         2       0       0       0       0       0       0       0       0       0       0       0       
      +0       0
  3079 ;;Total ram usage:        2 bytes
  3080 ;; Hardware stack levels used:    1
  3081 ;; This function calls:
  3082 ;;		Nothing
  3083 ;; This function is called by:
  3084 ;;		_TMR1_ISR
  3085 ;;		_TMR1_Reload
  3086 ;; This function uses a non-reentrant model
  3087 ;;
  3088                           
  3089                           
  3090                           ;psect for function _TMR1_WriteTimer
  3091  0083                     _TMR1_WriteTimer:	
  3092  0083                     i1l964:	
  3093                           ;incstack = 0
  3094                           ; Regs used in _TMR1_WriteTimer: [wreg+status,2]
  3095                           
  3096                           
  3097                           ;mcc_generated_files/tmr1.c: 120: void TMR1_WriteTimer(uint16_t timerVal);mcc_generated_
      +                          files/tmr1.c: 121: {;mcc_generated_files/tmr1.c: 122:     if (T1CONbits.T1SYNC == 1)
  3098  0083  0020               	movlb	0	; select bank0
  3099  0084  1D1B               	btfss	27,2	;volatile
  3100  0085  2887               	goto	u6_21
  3101  0086  2888               	goto	u6_20
  3102  0087                     u6_21:	
  3103  0087  288F               	goto	i1l974
  3104  0088                     u6_20:	
  3105  0088                     i1l966:	
  3106                           
  3107                           ;mcc_generated_files/tmr1.c: 123:     {;mcc_generated_files/tmr1.c: 125:         T1CONbi
      +                          ts.TMR1ON = 0;
  3108  0088  101B               	bcf	27,0	;volatile
  3109  0089                     i1l968:	
  3110                           
  3111                           ;mcc_generated_files/tmr1.c: 128:         TMR1H = (timerVal >> 8);
  3112  0089  0879               	movf	TMR1_WriteTimer@timerVal+1,w
  3113  008A  009A               	movwf	26	;volatile
  3114  008B                     i1l970:	
  3115                           
  3116                           ;mcc_generated_files/tmr1.c: 129:         TMR1L = timerVal;
  3117  008B  0878               	movf	TMR1_WriteTimer@timerVal,w
  3118  008C  0099               	movwf	25	;volatile
  3119  008D                     i1l972:	
  3120                           
  3121                           ;mcc_generated_files/tmr1.c: 132:         T1CONbits.TMR1ON =1;
  3122  008D  141B               	bsf	27,0	;volatile
  3123                           
  3124                           ;mcc_generated_files/tmr1.c: 133:     }
  3125  008E  2893               	goto	i1l183
  3126  008F                     i1l974:	
  3127                           
  3128                           ;mcc_generated_files/tmr1.c: 135:     {;mcc_generated_files/tmr1.c: 137:         TMR1H =
      +                           (timerVal >> 8);
  3129  008F  0879               	movf	TMR1_WriteTimer@timerVal+1,w
  3130  0090  009A               	movwf	26	;volatile
  3131  0091                     i1l976:	
  3132                           
  3133                           ;mcc_generated_files/tmr1.c: 138:         TMR1L = timerVal;
  3134  0091  0878               	movf	TMR1_WriteTimer@timerVal,w
  3135  0092  0099               	movwf	25	;volatile
  3136  0093                     i1l183:	
  3137  0093  0008               	return
  3138  0094                     __end_of_TMR1_WriteTimer:	
  3139                           
  3140                           	psect	text13
  3141  00C7                     __ptext13:	
  3142 ;; *************** function _TMR1_DefaultInterruptHandler *****************
  3143 ;; Defined at:
  3144 ;;		line 177 in file "mcc_generated_files/tmr1.c"
  3145 ;; Parameters:    Size  Location     Type
  3146 ;;		None
  3147 ;; Auto vars:     Size  Location     Type
  3148 ;;		None
  3149 ;; Return value:  Size  Location     Type
  3150 ;;                  1    wreg      void 
  3151 ;; Registers used:
  3152 ;;		None
  3153 ;; Tracked objects:
  3154 ;;		On entry : 0/0
  3155 ;;		On exit  : 0/0
  3156 ;;		Unchanged: 0/0
  3157 ;; Data sizes:     COMMON   BANK0   BANK1   BANK2   BANK3   BANK4   BANK5   BANK6   BANK7   BANK8   BANK9  BANK10  BANK1
      +1  BANK12
  3158 ;;      Params:         0       0       0       0       0       0       0       0       0       0       0       0       
      +0       0
  3159 ;;      Locals:         0       0       0       0       0       0       0       0       0       0       0       0       
      +0       0
  3160 ;;      Temps:          0       0       0       0       0       0       0       0       0       0       0       0       
      +0       0
  3161 ;;      Totals:         0       0       0       0       0       0       0       0       0       0       0       0       
      +0       0
  3162 ;;Total ram usage:        0 bytes
  3163 ;; Hardware stack levels used:    1
  3164 ;; This function calls:
  3165 ;;		Nothing
  3166 ;; This function is called by:
  3167 ;;		_TMR1_Initialize
  3168 ;;		_TMR1_ISR
  3169 ;; This function uses a non-reentrant model
  3170 ;;
  3171                           
  3172                           
  3173                           ;psect for function _TMR1_DefaultInterruptHandler
  3174  00C7                     _TMR1_DefaultInterruptHandler:	
  3175  00C7                     i1l202:	
  3176                           ;incstack = 0
  3177                           ; Regs used in _TMR1_DefaultInterruptHandler: []
  3178                           
  3179  00C7  0008               	return
  3180  00C8                     __end_of_TMR1_DefaultInterruptHandler:	
  3181  007E                     btemp	set	126	;btemp
  3182  007E                     int$flags	set	126
  3183  007E                     wtemp0	set	126


Data Sizes:
    Strings     0
    Constant    0
    Data        0
    BSS         4
    Persistent  36
    Stack       0

Auto Spaces:
    Space          Size  Autos    Used
    COMMON           14      4      12
    BANK0            80      0       0
    BANK1            80      0       0
    BANK2            80      0       0
    BANK3            80      0       0
    BANK4            80      0       0
    BANK5            80      0       0
    BANK6            80      0       0
    BANK7            80      0       0
    BANK8            80      0       0
    BANK9            80      0       0
    BANK10           80      0       0
    BANK11           80      0       0
    BANK12           48      0       0

Pointer List with Targets:

    TMR1_SetInterruptHandler@InterruptHandler	PTR FTN()void  size(2) Largest target is 1
		 -> TMR1_DefaultInterruptHandler(), 

    TMR1_InterruptHandler	PTR FTN()void  size(2) Largest target is 1
		 -> Absolute function(), TMR1_DefaultInterruptHandler(), 


Critical Paths under _main in COMMON

    _TMR1_Initialize->_TMR1_SetInterruptHandler

Critical Paths under _INTERRUPT_InterruptManager in COMMON

    _TMR1_ISR->_TMR1_WriteTimer

Critical Paths under _main in BANK0

    None.

Critical Paths under _INTERRUPT_InterruptManager in BANK0

    None.

Critical Paths under _main in BANK1

    None.

Critical Paths under _INTERRUPT_InterruptManager in BANK1

    None.

Critical Paths under _main in BANK2

    None.

Critical Paths under _INTERRUPT_InterruptManager in BANK2

    None.

Critical Paths under _main in BANK3

    None.

Critical Paths under _INTERRUPT_InterruptManager in BANK3

    None.

Critical Paths under _main in BANK4

    None.

Critical Paths under _INTERRUPT_InterruptManager in BANK4

    None.

Critical Paths under _main in BANK5

    None.

Critical Paths under _INTERRUPT_InterruptManager in BANK5

    None.

Critical Paths under _main in BANK6

    None.

Critical Paths under _INTERRUPT_InterruptManager in BANK6

    None.

Critical Paths under _main in BANK7

    None.

Critical Paths under _INTERRUPT_InterruptManager in BANK7

    None.

Critical Paths under _main in BANK8

    None.

Critical Paths under _INTERRUPT_InterruptManager in BANK8

    None.

Critical Paths under _main in BANK9

    None.

Critical Paths under _INTERRUPT_InterruptManager in BANK9

    None.

Critical Paths under _main in BANK10

    None.

Critical Paths under _INTERRUPT_InterruptManager in BANK10

    None.

Critical Paths under _main in BANK11

    None.

Critical Paths under _INTERRUPT_InterruptManager in BANK11

    None.

Critical Paths under _main in BANK12

    None.

Critical Paths under _INTERRUPT_InterruptManager in BANK12

    None.

Call Graph Tables:

 ---------------------------------------------------------------------------------
 (Depth) Function   	        Calls       Base Space   Used Autos Params    Refs
 ---------------------------------------------------------------------------------
 (0) _main                                                 0     0      0     196
                              _setup
 ---------------------------------------------------------------------------------
 (1) _setup                                                0     0      0     196
                  _SYSTEM_Initialize
                    _TMR1_Initialize
                    _TMR1_StartTimer
 ---------------------------------------------------------------------------------
 (2) _TMR1_StartTimer                                      0     0      0       0
 ---------------------------------------------------------------------------------
 (2) _SYSTEM_Initialize                                    0     0      0      98
              _OSCILLATOR_Initialize
             _PIN_MANAGER_Initialize
                     _PMD_Initialize
                    _TMR1_Initialize
                     _WDT_Initialize
 ---------------------------------------------------------------------------------
 (3) _WDT_Initialize                                       0     0      0       0
 ---------------------------------------------------------------------------------
 (2) _TMR1_Initialize                                      0     0      0      98
           _TMR1_SetInterruptHandler
 ---------------------------------------------------------------------------------
 (3) _TMR1_SetInterruptHandler                             2     0      2      98
                                              2 COMMON     2     0      2
 ---------------------------------------------------------------------------------
 (3) _PMD_Initialize                                       0     0      0       0
 ---------------------------------------------------------------------------------
 (3) _PIN_MANAGER_Initialize                               0     0      0       0
 ---------------------------------------------------------------------------------
 (3) _OSCILLATOR_Initialize                                0     0      0       0
 ---------------------------------------------------------------------------------
 Estimated maximum stack depth 3
 ---------------------------------------------------------------------------------
 (Depth) Function   	        Calls       Base Space   Used Autos Params    Refs
 ---------------------------------------------------------------------------------
 (5) _INTERRUPT_InterruptManager                           0     0      0     240
                           _TMR1_ISR
 ---------------------------------------------------------------------------------
 (6) _TMR1_ISR                                             0     0      0     240
                   Absolute function *
       _TMR1_DefaultInterruptHandler *
                    _TMR1_WriteTimer
 ---------------------------------------------------------------------------------
 (7) _TMR1_WriteTimer                                      2     0      2     240
                                              0 COMMON     2     0      2
 ---------------------------------------------------------------------------------
 (7) _TMR1_DefaultInterruptHandler                         0     0      0       0
 ---------------------------------------------------------------------------------
 (7) Absolute function(Fake)                               0     0      0       0
 ---------------------------------------------------------------------------------
 Estimated maximum stack depth 7
 ---------------------------------------------------------------------------------

 Call Graph Graphs:

 _main (ROOT)
   _setup
     _SYSTEM_Initialize
       _OSCILLATOR_Initialize
       _PIN_MANAGER_Initialize
       _PMD_Initialize
       _TMR1_Initialize
         _TMR1_SetInterruptHandler
       _WDT_Initialize
     _TMR1_Initialize
       _TMR1_SetInterruptHandler
     _TMR1_StartTimer

 _INTERRUPT_InterruptManager (ROOT)
   _TMR1_ISR
     Absolute function(Fake) *
     _TMR1_DefaultInterruptHandler *
     _TMR1_WriteTimer *

 Address spaces:
Name               Size   Autos  Total    Cost      Usage
BIGRAM             3F0      0       0       0        0.0%
EEDATA             100      0       0       0        0.0%
NULL                 0      0       0       0        0.0%
CODE                 0      0       0       0        0.0%
BITCOMMON            E      0       0       1        0.0%
BITSFR0              0      0       0       1        0.0%
SFR0                 0      0       0       1        0.0%
COMMON               E      4       C       2       85.7%
BITSFR1              0      0       0       2        0.0%
SFR1                 0      0       0       2        0.0%
BITSFR2              0      0       0       3        0.0%
SFR2                 0      0       0       3        0.0%
STACK                0      0       0       3        0.0%
BITBANK0            50      0       0       4        0.0%
BITSFR3              0      0       0       4        0.0%
SFR3                 0      0       0       4        0.0%
BANK0               50      0       0       5        0.0%
BITSFR4              0      0       0       5        0.0%
SFR4                 0      0       0       5        0.0%
BITBANK1            50      0       0       6        0.0%
BITSFR5              0      0       0       6        0.0%
SFR5                 0      0       0       6        0.0%
BANK1               50      0       0       7        0.0%
BITSFR6              0      0       0       7        0.0%
SFR6                 0      0       0       7        0.0%
BITBANK2            50      0       0       8        0.0%
BITSFR7              0      0       0       8        0.0%
SFR7                 0      0       0       8        0.0%
BANK2               50      0       0       9        0.0%
BITSFR8              0      0       0       9        0.0%
SFR8                 0      0       0       9        0.0%
BITBANK3            50      0       0      10        0.0%
BITSFR9              0      0       0      10        0.0%
SFR9                 0      0       0      10        0.0%
BANK3               50      0       0      11        0.0%
BITSFR10             0      0       0      11        0.0%
SFR10                0      0       0      11        0.0%
BITBANK4            50      0       0      12        0.0%
BITSFR11             0      0       0      12        0.0%
SFR11                0      0       0      12        0.0%
BANK4               50      0       0      13        0.0%
BITSFR12             0      0       0      13        0.0%
SFR12                0      0       0      13        0.0%
BITBANK5            50      0       0      14        0.0%
BITSFR13             0      0       0      14        0.0%
SFR13                0      0       0      14        0.0%
BANK5               50      0       0      15        0.0%
BITSFR14             0      0       0      15        0.0%
SFR14                0      0       0      15        0.0%
BITBANK6            50      0       0      16        0.0%
BITSFR15             0      0       0      16        0.0%
SFR15                0      0       0      16        0.0%
BANK6               50      0       0      17        0.0%
BITSFR16             0      0       0      17        0.0%
SFR16                0      0       0      17        0.0%
BITBANK7            50      0       0      18        0.0%
BITSFR17             0      0       0      18        0.0%
SFR17                0      0       0      18        0.0%
BANK7               50      0       0      19        0.0%
BITSFR18             0      0       0      19        0.0%
SFR18                0      0       0      19        0.0%
BITSFR19             0      0       0      20        0.0%
SFR19                0      0       0      20        0.0%
ABS                  0      0       C      20        0.0%
BITBANK8            50      0       0      21        0.0%
BITSFR20             0      0       0      21        0.0%
SFR20                0      0       0      21        0.0%
BANK8               50      0       0      22        0.0%
BITSFR21             0      0       0      22        0.0%
SFR21                0      0       0      22        0.0%
BITBANK9            50      0       0      23        0.0%
BITSFR22             0      0       0      23        0.0%
SFR22                0      0       0      23        0.0%
BANK9               50      0       0      24        0.0%
BITSFR23             0      0       0      24        0.0%
SFR23                0      0       0      24        0.0%
BITBANK10           50      0       0      25        0.0%
BITSFR24             0      0       0      25        0.0%
SFR24                0      0       0      25        0.0%
BANK10              50      0       0      26        0.0%
BITSFR25             0      0       0      26        0.0%
SFR25                0      0       0      26        0.0%
BITBANK11           50      0       0      27        0.0%
BITSFR26             0      0       0      27        0.0%
SFR26                0      0       0      27        0.0%
BANK11              50      0       0      28        0.0%
BITSFR27             0      0       0      28        0.0%
SFR27                0      0       0      28        0.0%
BITBANK12           30      0       0      29        0.0%
BITSFR28             0      0       0      29        0.0%
SFR28                0      0       0      29        0.0%
BANK12              30      0       0      30        0.0%
BITSFR29             0      0       0      30        0.0%
SFR29                0      0       0      30        0.0%
BITSFR30             0      0       0      31        0.0%
SFR30                0      0       0      31        0.0%
DATA                 0      0       C      31        0.0%
BITSFR31             0      0       0      32        0.0%
SFR31                0      0       0      32        0.0%


Microchip Technology PIC Macro Assembler V2.10 build 88905656 
Symbol Table                                                                                   Wed Apr 22 20:21:32 2020

                             __CFG_CP$OFF 0000                                        l30 00B8  
                                      l31 00B8                                        l25 0082  
                                      l80 00C3                                        l74 00A3  
                                      l83 00B4                                        l77 00AC  
                             __CFG_LVP$ON 0000                                       l114 0040  
                                     l172 00C6                                       l169 0071  
                                     l199 00BF                                       l830 00AD  
                                     l840 002E                                       l832 0023  
                                     l850 00A4                                       l842 0036  
                                     l834 0026                                       l852 00A7  
                                     l844 0039                                       l836 0029  
                                     l940 005C                                       l854 00A8  
                                     l846 003B                                       l838 002B  
                                     l950 0067                                       l942 005E  
                                     l870 00C4                                       l856 00AB  
                                     l848 003E                                       l936 00BB  
                                     l952 006E                                       l944 0060  
                                     l960 009D                                       l946 0061  
                                     l938 005A                                       l858 00C0  
                                     l962 00A0                                       l954 0094  
                                     l948 0065                                       l956 0097  
                                     l980 0075                                       l958 009A  
                                     l990 0080                                       l982 0076  
                                     l992 0081                                       l984 007A  
                                     l986 007D                                       l978 0072  
                                     l988 007F                              __CFG_CPD$OFF 0000  
                         _timer1ReloadVal 0072                   __size_of_PMD_Initialize 0008  
                                    l1004 00B5                                      _LATA 010C  
                                    _LATC 010E                                      _PMD0 0911  
                                    _PMD1 0912                                      _PMD2 0913  
                                    _PMD3 0914                                      _PMD4 0915  
                                    _PMD5 0916                                      _WPUA 020C  
                                    _WPUC 020E                                      u6_20 0088  
                                    u6_21 0087                                      u7_20 0054  
                                    u7_21 0053                                      u8_20 000A  
                                    u8_21 0009                                      u9_20 000F  
                                    u9_21 000E                              __CFG_WRT$OFF 0000  
                           __CFG_FCMEN$ON 0000                                      _main 00B5  
                                    btemp 007E                             __CFG_BOREN$ON 0000  
                           __CFG_BORV$LOW 0000                                      start 0019  
              ??_TMR1_SetInterruptHandler 007C                             __CFG_CSWEN$ON 0000  
                           __CFG_MCLRE$ON 0000            __size_of_OSCILLATOR_Initialize 0009  
           __end_of_OSCILLATOR_Initialize 00AD                                     ?_main 0078  
                           __CFG_WDTE$OFF 0000                           _TMR1_StartTimer 00C4  
                                   _T1CON 001B                            __CFG_DEBUG$OFF 0000  
                                   i1l202 00C7                                     i1l138 0017  
                                   i1l183 0093                                     i1l196 0059  
                                   i1l970 008B                                     i1l972 008D  
                                   i1l964 0083                                     i1l966 0088  
                                   i1l974 008F                                     i1l976 0091  
                                   i1l968 0089                                     i1l994 0041  
                                   i1l996 0043                                     i1l998 004A  
                                   u10_20 0014                                     u10_21 0013  
                                   _OSCEN 091D                                     _TMR1H 001A  
                                   _TMR1L 0019                                     _TRISA 008C  
                                   _TRISC 008E                          __end_of_TMR1_ISR 005A  
                          _WDT_Initialize 00C0                                     _setup 0072  
                 __end_of_TMR1_Initialize 0072                                     pclath 000A  
                                   status 0003                                     wtemp0 007E  
                         _TMR1_WriteTimer 0083                           __initialization 001B  
                            __end_of_main 00BB               ?_INTERRUPT_InterruptManager 0078  
                                  ??_main 007C                    __end_of_WDT_Initialize 00C4  
                                  ?_setup 0078                                    _ANSELA 018C  
                                  _ANSELC 018E                        __CFG_RSTOSC$HFINT1 0000  
                                  _T1GCON 001C                                    i1l1000 004E  
                                  i1l1002 0054                                    i1l1010 000F  
                                  i1l1012 0014                                    i1l1006 0006  
                                  i1l1008 000A                   TMR1_WriteTimer@timerVal 0078  
                                  _ODCONA 028C                                    _ODCONC 028E  
                                  _INLVLA 038C                                    _INLVLC 038E  
                                  _OSCFRQ 091F                                    _WDTCON 0097  
                          __CFG_PWRTE$OFF 0000      __end_of_TMR1_DefaultInterruptHandler 00C8  
   __size_of_TMR1_DefaultInterruptHandler 0001              _TMR1_DefaultInterruptHandler 00C7  
                 __end_of_TMR1_StartTimer 00C7                            __CFG_STVREN$ON 0000  
                                  _cur_ms 0076                            _PMD_Initialize 00AD  
                         ?_WDT_Initialize 0078  TMR1_SetInterruptHandler@InterruptHandler 007A  
                 __end_of_TMR1_WriteTimer 0094                          ?_TMR1_Initialize 0078  
                       _SYSTEM_Initialize 0094                   __end_of__initialization 001F  
                      ?_SYSTEM_Initialize 0078                            __pcstackCOMMON 0078  
                     ??_SYSTEM_Initialize 007C                                 ?_TMR1_ISR 0078  
           ?_TMR1_DefaultInterruptHandler 0078                             __end_of_setup 0083  
                  __end_of_PMD_Initialize 00B5                 __end_of_SYSTEM_Initialize 00A4  
                                 ??_setup 007C                                __pnvCOMMON 0070  
                              __pmaintext 00B5                          ?_TMR1_StartTimer 0078  
                              ??_TMR1_ISR 007A                           __CFG_PPS1WAY$ON 0000  
                              __pintentry 0004                           ?_PMD_Initialize 0078  
                                 _OSCCON1 0919                                   _OSCCON3 091B  
                                 _OSCTUNE 091E                                   _SLRCONA 030C  
                                 _SLRCONC 030E                          ?_TMR1_WriteTimer 0078  
                                 __ptext1 0072                                   __ptext2 00C4  
                                 __ptext3 0094                                   __ptext4 00C0  
                                 __ptext5 005A                                   __ptext6 00BB  
                                 __ptext7 00AD                                   __ptext8 0023  
                                 __ptext9 00A4            ??_TMR1_DefaultInterruptHandler 0078  
                               _T1CONbits 001B                     _OSCILLATOR_Initialize 00A4  
       __size_of_TMR1_SetInterruptHandler 0005                  ??_PIN_MANAGER_Initialize 007A  
               ?_TMR1_SetInterruptHandler 007A                                   _temp_ms 0074  
              __size_of_SYSTEM_Initialize 0010                      end_of_initialization 001F  
                        ??_WDT_Initialize 007A                          __CFG_FEXTOSC$OFF 0000  
                       __size_of_TMR1_ISR 0019                    ?_OSCILLATOR_Initialize 0078  
                     start_initialization 001B           __size_of_PIN_MANAGER_Initialize 001E  
                        __CFG_LPBOREN$OFF 0000                  __size_of_TMR1_Initialize 0018  
                        ??_PMD_Initialize 007A                               __pbssCOMMON 0074  
                               ___latbits 0002                    _PIN_MANAGER_Initialize 0023  
        __end_of_TMR1_SetInterruptHandler 00C0              ??_INTERRUPT_InterruptManager 007A  
                __size_of_TMR1_StartTimer 0003                            __size_of_setup 0011  
                                _LATCbits 010E                                  _PIE1bits 0091  
                __size_of_TMR1_WriteTimer 0011       __size_of_INTERRUPT_InterruptManager 0015  
                                _PIR1bits 0011                                  _TMR1_ISR 0041  
                       ??_TMR1_Initialize 007C                   ??_OSCILLATOR_Initialize 007A  
                _TMR1_SetInterruptHandler 00BB                     _TMR1_InterruptHandler 0070  
                                __ptext11 0041                                  __ptext12 0083  
                                __ptext13 00C7                                _T1GCONbits 001C  
                       ??_TMR1_StartTimer 007A                             __size_of_main 0006  
                                int$flags 007E        __end_of_INTERRUPT_InterruptManager 0019  
              _INTERRUPT_InterruptManager 0004                         ??_TMR1_WriteTimer 007A  
                              _INTCONbits 000B                   __size_of_WDT_Initialize 0004  
                                intlevel1 0000                   ?_PIN_MANAGER_Initialize 0078  
                       __CFG_CLKOUTEN$OFF 0000            __end_of_PIN_MANAGER_Initialize 0041  
                         _TMR1_Initialize 005A  
