

Microchip MPLAB XC8 Assembler V2.10 build 88905656 
                                                                                               Thu Apr 23 12:43:46 2020

Microchip MPLAB XC8 C Compiler v2.10 (Free license) build 20190730164152 Og1 
     1                           	processor	16F18325
     2                           	opt	pw 120
     3                           	opt	flic
     4                           	psect	nvCOMMON,global,class=COMMON,space=1,delta=1
     5                           	psect	nvBANK0,global,class=BANK0,space=1,delta=1
     6                           	psect	cinit,global,class=CODE,merge=1,delta=2
     7                           	psect	bssCOMMON,global,class=COMMON,space=1,delta=1
     8                           	psect	bssBANK0,global,class=BANK0,space=1,delta=1
     9                           	psect	clrtext,global,class=CODE,delta=2
    10                           	psect	cstackCOMMON,global,class=COMMON,space=1,delta=1
    11                           	psect	cstackBANK0,global,class=BANK0,space=1,delta=1
    12                           	psect	maintext,global,class=CODE,merge=1,split=1,delta=2
    13                           	psect	text1,local,class=CODE,merge=1,delta=2
    14                           	psect	text2,local,class=CODE,merge=1,delta=2
    15                           	psect	text3,local,class=CODE,merge=1,delta=2
    16                           	psect	text4,local,class=CODE,merge=1,delta=2
    17                           	psect	text5,local,class=CODE,merge=1,delta=2
    18                           	psect	text6,local,class=CODE,merge=1,delta=2
    19                           	psect	text7,local,class=CODE,merge=1,delta=2
    20                           	psect	text8,local,class=CODE,merge=1,delta=2
    21                           	psect	text9,local,class=CODE,merge=1,delta=2
    22                           	psect	text10,local,class=CODE,merge=1,delta=2
    23                           	psect	text11,local,class=CODE,merge=1,delta=2
    24                           	psect	text12,local,class=CODE,merge=1,delta=2
    25                           	psect	text13,local,class=CODE,merge=1,delta=2
    26                           	psect	intentry,global,class=CODE,delta=2
    27                           	psect	text15,local,class=CODE,merge=1,delta=2
    28                           	psect	text16,local,class=CODE,merge=1,delta=2
    29                           	psect	text17,local,class=CODE,merge=1,delta=2
    30                           	psect	text18,local,class=CODE,merge=1,delta=2
    31                           	psect	text19,local,class=CODE,merge=1,delta=2
    32                           	dabs	1,0x7E,2
    33  0000                     
    34                           ; Version 2.10
    35                           ; Generated 31/07/2019 GMT
    36                           ; 
    37                           ; Copyright © 2019, Microchip Technology Inc. and its subsidiaries ("Microchip")
    38                           ; All rights reserved.
    39                           ; 
    40                           ; This software is developed by Microchip Technology Inc. and its subsidiaries ("Microch
      +                          ip").
    41                           ; 
    42                           ; Redistribution and use in source and binary forms, with or without modification, are
    43                           ; permitted provided that the following conditions are met:
    44                           ; 
    45                           ;     1. Redistributions of source code must retain the above copyright notice, this lis
      +                          t of
    46                           ;        conditions and the following disclaimer.
    47                           ; 
    48                           ;     2. Redistributions in binary form must reproduce the above copyright notice, this 
      +                          list
    49                           ;        of conditions and the following disclaimer in the documentation and/or other
    50                           ;        materials provided with the distribution.
    51                           ; 
    52                           ;     3. Microchip's name may not be used to endorse or promote products derived from th
      +                          is
    53                           ;        software without specific prior written permission.
    54                           ; 
    55                           ; THIS SOFTWARE IS PROVIDED BY MICROCHIP "AS IS" AND ANY EXPRESS OR IMPLIED WARRANTIES,
    56                           ; INCLUDING, BUT NOT LIMITED TO, THE IMPLIED WARRANTIES OF MERCHANTABILITY AND FITNESS F
      +                          OR
    57                           ; PURPOSE ARE DISCLAIMED.  IN NO EVENT SHALL MICROCHIP BE LIABLE FOR ANY DIRECT, INDIREC
      +                          T,
    58                           ; INCIDENTAL, SPECIAL, EXEMPLARY, OR CONSEQUENTIAL DAMAGES (INCLUDING BUT NOT LIMITED TO
    59                           ; PROCUREMENT OF SUBSTITUTE GOODS OR SERVICES; LOSS OF USE, DATA OR PROFITS; OR BUSINESS
    60                           ; INTERRUPTION) HOWSOEVER CAUSED AND ON ANY THEORY OF LIABILITY, WHETHER IN CONTRACT, ST
      +                          RICT
    61                           ; LIABILITY, OR TORT (INCLUDING NEGLIGENCE OR OTHERWISE) ARISING IN ANY WAY OUT OF THE U
      +                          SE OF
    62                           ; THIS SOFTWARE, EVEN IF ADVISED OF THE POSSIBILITY OF SUCH DAMAGE.
    63                           ; 
    64                           ; 
    65                           ; Code-generator required, PIC16F18325 Definitions
    66                           ; 
    67                           ; SFR Addresses
    68  0000                     	;# 
    69  0001                     	;# 
    70  0002                     	;# 
    71  0003                     	;# 
    72  0004                     	;# 
    73  0005                     	;# 
    74  0006                     	;# 
    75  0007                     	;# 
    76  0008                     	;# 
    77  0009                     	;# 
    78  000A                     	;# 
    79  000B                     	;# 
    80  000C                     	;# 
    81  000E                     	;# 
    82  0010                     	;# 
    83  0011                     	;# 
    84  0012                     	;# 
    85  0013                     	;# 
    86  0014                     	;# 
    87  0015                     	;# 
    88  0015                     	;# 
    89  0016                     	;# 
    90  0016                     	;# 
    91  0017                     	;# 
    92  0018                     	;# 
    93  0019                     	;# 
    94  0019                     	;# 
    95  001A                     	;# 
    96  001B                     	;# 
    97  001C                     	;# 
    98  001D                     	;# 
    99  001E                     	;# 
   100  001F                     	;# 
   101  008C                     	;# 
   102  008E                     	;# 
   103  0090                     	;# 
   104  0091                     	;# 
   105  0092                     	;# 
   106  0093                     	;# 
   107  0094                     	;# 
   108  0097                     	;# 
   109  009B                     	;# 
   110  009B                     	;# 
   111  009C                     	;# 
   112  009D                     	;# 
   113  009E                     	;# 
   114  009F                     	;# 
   115  010C                     	;# 
   116  010E                     	;# 
   117  0111                     	;# 
   118  0112                     	;# 
   119  0113                     	;# 
   120  0114                     	;# 
   121  0115                     	;# 
   122  0116                     	;# 
   123  0117                     	;# 
   124  0118                     	;# 
   125  0119                     	;# 
   126  018C                     	;# 
   127  018E                     	;# 
   128  0197                     	;# 
   129  0199                     	;# 
   130  0199                     	;# 
   131  0199                     	;# 
   132  019A                     	;# 
   133  019A                     	;# 
   134  019A                     	;# 
   135  019B                     	;# 
   136  019B                     	;# 
   137  019B                     	;# 
   138  019B                     	;# 
   139  019B                     	;# 
   140  019C                     	;# 
   141  019C                     	;# 
   142  019C                     	;# 
   143  019D                     	;# 
   144  019D                     	;# 
   145  019D                     	;# 
   146  019E                     	;# 
   147  019E                     	;# 
   148  019E                     	;# 
   149  019F                     	;# 
   150  019F                     	;# 
   151  019F                     	;# 
   152  019F                     	;# 
   153  019F                     	;# 
   154  020C                     	;# 
   155  020E                     	;# 
   156  0211                     	;# 
   157  0211                     	;# 
   158  0212                     	;# 
   159  0212                     	;# 
   160  0213                     	;# 
   161  0213                     	;# 
   162  0214                     	;# 
   163  0214                     	;# 
   164  0215                     	;# 
   165  0215                     	;# 
   166  0215                     	;# 
   167  0215                     	;# 
   168  0216                     	;# 
   169  0216                     	;# 
   170  0217                     	;# 
   171  0217                     	;# 
   172  0219                     	;# 
   173  021A                     	;# 
   174  021B                     	;# 
   175  021C                     	;# 
   176  021D                     	;# 
   177  021D                     	;# 
   178  021E                     	;# 
   179  021F                     	;# 
   180  028C                     	;# 
   181  028E                     	;# 
   182  0291                     	;# 
   183  0291                     	;# 
   184  0292                     	;# 
   185  0293                     	;# 
   186  0294                     	;# 
   187  0295                     	;# 
   188  0295                     	;# 
   189  0296                     	;# 
   190  0297                     	;# 
   191  0298                     	;# 
   192  029F                     	;# 
   193  030C                     	;# 
   194  030E                     	;# 
   195  0311                     	;# 
   196  0311                     	;# 
   197  0312                     	;# 
   198  0313                     	;# 
   199  0314                     	;# 
   200  0315                     	;# 
   201  0315                     	;# 
   202  0316                     	;# 
   203  0317                     	;# 
   204  0318                     	;# 
   205  038C                     	;# 
   206  038E                     	;# 
   207  0391                     	;# 
   208  0392                     	;# 
   209  0393                     	;# 
   210  0397                     	;# 
   211  0398                     	;# 
   212  0399                     	;# 
   213  039A                     	;# 
   214  039C                     	;# 
   215  039D                     	;# 
   216  039E                     	;# 
   217  039F                     	;# 
   218  0411                     	;# 
   219  0411                     	;# 
   220  0412                     	;# 
   221  0413                     	;# 
   222  0414                     	;# 
   223  0415                     	;# 
   224  0416                     	;# 
   225  0417                     	;# 
   226  0418                     	;# 
   227  0418                     	;# 
   228  0419                     	;# 
   229  041A                     	;# 
   230  041B                     	;# 
   231  041C                     	;# 
   232  041D                     	;# 
   233  041E                     	;# 
   234  041F                     	;# 
   235  0498                     	;# 
   236  0498                     	;# 
   237  0499                     	;# 
   238  049A                     	;# 
   239  049B                     	;# 
   240  049B                     	;# 
   241  049C                     	;# 
   242  049D                     	;# 
   243  049E                     	;# 
   244  049F                     	;# 
   245  0617                     	;# 
   246  0618                     	;# 
   247  0619                     	;# 
   248  0619                     	;# 
   249  061A                     	;# 
   250  061B                     	;# 
   251  061C                     	;# 
   252  061C                     	;# 
   253  061F                     	;# 
   254  0691                     	;# 
   255  0692                     	;# 
   256  0693                     	;# 
   257  0694                     	;# 
   258  0695                     	;# 
   259  0696                     	;# 
   260  0697                     	;# 
   261  0698                     	;# 
   262  0699                     	;# 
   263  0711                     	;# 
   264  0712                     	;# 
   265  0713                     	;# 
   266  0714                     	;# 
   267  0715                     	;# 
   268  0716                     	;# 
   269  0717                     	;# 
   270  0718                     	;# 
   271  0719                     	;# 
   272  0891                     	;# 
   273  0891                     	;# 
   274  0891                     	;# 
   275  0891                     	;# 
   276  0891                     	;# 
   277  0891                     	;# 
   278  0892                     	;# 
   279  0892                     	;# 
   280  0892                     	;# 
   281  0893                     	;# 
   282  0893                     	;# 
   283  0893                     	;# 
   284  0893                     	;# 
   285  0893                     	;# 
   286  0893                     	;# 
   287  0894                     	;# 
   288  0894                     	;# 
   289  0894                     	;# 
   290  0895                     	;# 
   291  0895                     	;# 
   292  0895                     	;# 
   293  0896                     	;# 
   294  0896                     	;# 
   295  0896                     	;# 
   296  089B                     	;# 
   297  0911                     	;# 
   298  0912                     	;# 
   299  0913                     	;# 
   300  0914                     	;# 
   301  0915                     	;# 
   302  0916                     	;# 
   303  0918                     	;# 
   304  0919                     	;# 
   305  091A                     	;# 
   306  091B                     	;# 
   307  091C                     	;# 
   308  091D                     	;# 
   309  091E                     	;# 
   310  091F                     	;# 
   311  0E0F                     	;# 
   312  0E10                     	;# 
   313  0E11                     	;# 
   314  0E12                     	;# 
   315  0E13                     	;# 
   316  0E14                     	;# 
   317  0E15                     	;# 
   318  0E16                     	;# 
   319  0E17                     	;# 
   320  0E18                     	;# 
   321  0E19                     	;# 
   322  0E1A                     	;# 
   323  0E1B                     	;# 
   324  0E1C                     	;# 
   325  0E1D                     	;# 
   326  0E1E                     	;# 
   327  0E1F                     	;# 
   328  0E20                     	;# 
   329  0E21                     	;# 
   330  0E22                     	;# 
   331  0E24                     	;# 
   332  0E25                     	;# 
   333  0E28                     	;# 
   334  0E29                     	;# 
   335  0E2A                     	;# 
   336  0E2B                     	;# 
   337  0E2C                     	;# 
   338  0E2D                     	;# 
   339  0E2E                     	;# 
   340  0E2F                     	;# 
   341  0E90                     	;# 
   342  0E91                     	;# 
   343  0E92                     	;# 
   344  0E94                     	;# 
   345  0E95                     	;# 
   346  0EA0                     	;# 
   347  0EA1                     	;# 
   348  0EA2                     	;# 
   349  0EA3                     	;# 
   350  0EA4                     	;# 
   351  0EA5                     	;# 
   352  0F0F                     	;# 
   353  0F10                     	;# 
   354  0F11                     	;# 
   355  0F12                     	;# 
   356  0F13                     	;# 
   357  0F14                     	;# 
   358  0F15                     	;# 
   359  0F16                     	;# 
   360  0F17                     	;# 
   361  0F18                     	;# 
   362  0F19                     	;# 
   363  0F1A                     	;# 
   364  0F1B                     	;# 
   365  0F1C                     	;# 
   366  0F1D                     	;# 
   367  0F1E                     	;# 
   368  0F1F                     	;# 
   369  0F20                     	;# 
   370  0F21                     	;# 
   371  0F22                     	;# 
   372  0F23                     	;# 
   373  0F24                     	;# 
   374  0F25                     	;# 
   375  0F26                     	;# 
   376  0F27                     	;# 
   377  0F28                     	;# 
   378  0F29                     	;# 
   379  0F2A                     	;# 
   380  0F2B                     	;# 
   381  0F2C                     	;# 
   382  0F2D                     	;# 
   383  0F2E                     	;# 
   384  0F2F                     	;# 
   385  0F30                     	;# 
   386  0F31                     	;# 
   387  0F32                     	;# 
   388  0F33                     	;# 
   389  0F34                     	;# 
   390  0F35                     	;# 
   391  0F36                     	;# 
   392  0F37                     	;# 
   393  0FE4                     	;# 
   394  0FE5                     	;# 
   395  0FE6                     	;# 
   396  0FE7                     	;# 
   397  0FE8                     	;# 
   398  0FE9                     	;# 
   399  0FEA                     	;# 
   400  0FEB                     	;# 
   401  0FED                     	;# 
   402  0FEE                     	;# 
   403  0FEF                     	;# 
   404  0000                     	;# 
   405  0001                     	;# 
   406  0002                     	;# 
   407  0003                     	;# 
   408  0004                     	;# 
   409  0005                     	;# 
   410  0006                     	;# 
   411  0007                     	;# 
   412  0008                     	;# 
   413  0009                     	;# 
   414  000A                     	;# 
   415  000B                     	;# 
   416  000C                     	;# 
   417  000E                     	;# 
   418  0010                     	;# 
   419  0011                     	;# 
   420  0012                     	;# 
   421  0013                     	;# 
   422  0014                     	;# 
   423  0015                     	;# 
   424  0015                     	;# 
   425  0016                     	;# 
   426  0016                     	;# 
   427  0017                     	;# 
   428  0018                     	;# 
   429  0019                     	;# 
   430  0019                     	;# 
   431  001A                     	;# 
   432  001B                     	;# 
   433  001C                     	;# 
   434  001D                     	;# 
   435  001E                     	;# 
   436  001F                     	;# 
   437  008C                     	;# 
   438  008E                     	;# 
   439  0090                     	;# 
   440  0091                     	;# 
   441  0092                     	;# 
   442  0093                     	;# 
   443  0094                     	;# 
   444  0097                     	;# 
   445  009B                     	;# 
   446  009B                     	;# 
   447  009C                     	;# 
   448  009D                     	;# 
   449  009E                     	;# 
   450  009F                     	;# 
   451  010C                     	;# 
   452  010E                     	;# 
   453  0111                     	;# 
   454  0112                     	;# 
   455  0113                     	;# 
   456  0114                     	;# 
   457  0115                     	;# 
   458  0116                     	;# 
   459  0117                     	;# 
   460  0118                     	;# 
   461  0119                     	;# 
   462  018C                     	;# 
   463  018E                     	;# 
   464  0197                     	;# 
   465  0199                     	;# 
   466  0199                     	;# 
   467  0199                     	;# 
   468  019A                     	;# 
   469  019A                     	;# 
   470  019A                     	;# 
   471  019B                     	;# 
   472  019B                     	;# 
   473  019B                     	;# 
   474  019B                     	;# 
   475  019B                     	;# 
   476  019C                     	;# 
   477  019C                     	;# 
   478  019C                     	;# 
   479  019D                     	;# 
   480  019D                     	;# 
   481  019D                     	;# 
   482  019E                     	;# 
   483  019E                     	;# 
   484  019E                     	;# 
   485  019F                     	;# 
   486  019F                     	;# 
   487  019F                     	;# 
   488  019F                     	;# 
   489  019F                     	;# 
   490  020C                     	;# 
   491  020E                     	;# 
   492  0211                     	;# 
   493  0211                     	;# 
   494  0212                     	;# 
   495  0212                     	;# 
   496  0213                     	;# 
   497  0213                     	;# 
   498  0214                     	;# 
   499  0214                     	;# 
   500  0215                     	;# 
   501  0215                     	;# 
   502  0215                     	;# 
   503  0215                     	;# 
   504  0216                     	;# 
   505  0216                     	;# 
   506  0217                     	;# 
   507  0217                     	;# 
   508  0219                     	;# 
   509  021A                     	;# 
   510  021B                     	;# 
   511  021C                     	;# 
   512  021D                     	;# 
   513  021D                     	;# 
   514  021E                     	;# 
   515  021F                     	;# 
   516  028C                     	;# 
   517  028E                     	;# 
   518  0291                     	;# 
   519  0291                     	;# 
   520  0292                     	;# 
   521  0293                     	;# 
   522  0294                     	;# 
   523  0295                     	;# 
   524  0295                     	;# 
   525  0296                     	;# 
   526  0297                     	;# 
   527  0298                     	;# 
   528  029F                     	;# 
   529  030C                     	;# 
   530  030E                     	;# 
   531  0311                     	;# 
   532  0311                     	;# 
   533  0312                     	;# 
   534  0313                     	;# 
   535  0314                     	;# 
   536  0315                     	;# 
   537  0315                     	;# 
   538  0316                     	;# 
   539  0317                     	;# 
   540  0318                     	;# 
   541  038C                     	;# 
   542  038E                     	;# 
   543  0391                     	;# 
   544  0392                     	;# 
   545  0393                     	;# 
   546  0397                     	;# 
   547  0398                     	;# 
   548  0399                     	;# 
   549  039A                     	;# 
   550  039C                     	;# 
   551  039D                     	;# 
   552  039E                     	;# 
   553  039F                     	;# 
   554  0411                     	;# 
   555  0411                     	;# 
   556  0412                     	;# 
   557  0413                     	;# 
   558  0414                     	;# 
   559  0415                     	;# 
   560  0416                     	;# 
   561  0417                     	;# 
   562  0418                     	;# 
   563  0418                     	;# 
   564  0419                     	;# 
   565  041A                     	;# 
   566  041B                     	;# 
   567  041C                     	;# 
   568  041D                     	;# 
   569  041E                     	;# 
   570  041F                     	;# 
   571  0498                     	;# 
   572  0498                     	;# 
   573  0499                     	;# 
   574  049A                     	;# 
   575  049B                     	;# 
   576  049B                     	;# 
   577  049C                     	;# 
   578  049D                     	;# 
   579  049E                     	;# 
   580  049F                     	;# 
   581  0617                     	;# 
   582  0618                     	;# 
   583  0619                     	;# 
   584  0619                     	;# 
   585  061A                     	;# 
   586  061B                     	;# 
   587  061C                     	;# 
   588  061C                     	;# 
   589  061F                     	;# 
   590  0691                     	;# 
   591  0692                     	;# 
   592  0693                     	;# 
   593  0694                     	;# 
   594  0695                     	;# 
   595  0696                     	;# 
   596  0697                     	;# 
   597  0698                     	;# 
   598  0699                     	;# 
   599  0711                     	;# 
   600  0712                     	;# 
   601  0713                     	;# 
   602  0714                     	;# 
   603  0715                     	;# 
   604  0716                     	;# 
   605  0717                     	;# 
   606  0718                     	;# 
   607  0719                     	;# 
   608  0891                     	;# 
   609  0891                     	;# 
   610  0891                     	;# 
   611  0891                     	;# 
   612  0891                     	;# 
   613  0891                     	;# 
   614  0892                     	;# 
   615  0892                     	;# 
   616  0892                     	;# 
   617  0893                     	;# 
   618  0893                     	;# 
   619  0893                     	;# 
   620  0893                     	;# 
   621  0893                     	;# 
   622  0893                     	;# 
   623  0894                     	;# 
   624  0894                     	;# 
   625  0894                     	;# 
   626  0895                     	;# 
   627  0895                     	;# 
   628  0895                     	;# 
   629  0896                     	;# 
   630  0896                     	;# 
   631  0896                     	;# 
   632  089B                     	;# 
   633  0911                     	;# 
   634  0912                     	;# 
   635  0913                     	;# 
   636  0914                     	;# 
   637  0915                     	;# 
   638  0916                     	;# 
   639  0918                     	;# 
   640  0919                     	;# 
   641  091A                     	;# 
   642  091B                     	;# 
   643  091C                     	;# 
   644  091D                     	;# 
   645  091E                     	;# 
   646  091F                     	;# 
   647  0E0F                     	;# 
   648  0E10                     	;# 
   649  0E11                     	;# 
   650  0E12                     	;# 
   651  0E13                     	;# 
   652  0E14                     	;# 
   653  0E15                     	;# 
   654  0E16                     	;# 
   655  0E17                     	;# 
   656  0E18                     	;# 
   657  0E19                     	;# 
   658  0E1A                     	;# 
   659  0E1B                     	;# 
   660  0E1C                     	;# 
   661  0E1D                     	;# 
   662  0E1E                     	;# 
   663  0E1F                     	;# 
   664  0E20                     	;# 
   665  0E21                     	;# 
   666  0E22                     	;# 
   667  0E24                     	;# 
   668  0E25                     	;# 
   669  0E28                     	;# 
   670  0E29                     	;# 
   671  0E2A                     	;# 
   672  0E2B                     	;# 
   673  0E2C                     	;# 
   674  0E2D                     	;# 
   675  0E2E                     	;# 
   676  0E2F                     	;# 
   677  0E90                     	;# 
   678  0E91                     	;# 
   679  0E92                     	;# 
   680  0E94                     	;# 
   681  0E95                     	;# 
   682  0EA0                     	;# 
   683  0EA1                     	;# 
   684  0EA2                     	;# 
   685  0EA3                     	;# 
   686  0EA4                     	;# 
   687  0EA5                     	;# 
   688  0F0F                     	;# 
   689  0F10                     	;# 
   690  0F11                     	;# 
   691  0F12                     	;# 
   692  0F13                     	;# 
   693  0F14                     	;# 
   694  0F15                     	;# 
   695  0F16                     	;# 
   696  0F17                     	;# 
   697  0F18                     	;# 
   698  0F19                     	;# 
   699  0F1A                     	;# 
   700  0F1B                     	;# 
   701  0F1C                     	;# 
   702  0F1D                     	;# 
   703  0F1E                     	;# 
   704  0F1F                     	;# 
   705  0F20                     	;# 
   706  0F21                     	;# 
   707  0F22                     	;# 
   708  0F23                     	;# 
   709  0F24                     	;# 
   710  0F25                     	;# 
   711  0F26                     	;# 
   712  0F27                     	;# 
   713  0F28                     	;# 
   714  0F29                     	;# 
   715  0F2A                     	;# 
   716  0F2B                     	;# 
   717  0F2C                     	;# 
   718  0F2D                     	;# 
   719  0F2E                     	;# 
   720  0F2F                     	;# 
   721  0F30                     	;# 
   722  0F31                     	;# 
   723  0F32                     	;# 
   724  0F33                     	;# 
   725  0F34                     	;# 
   726  0F35                     	;# 
   727  0F36                     	;# 
   728  0F37                     	;# 
   729  0FE4                     	;# 
   730  0FE5                     	;# 
   731  0FE6                     	;# 
   732  0FE7                     	;# 
   733  0FE8                     	;# 
   734  0FE9                     	;# 
   735  0FEA                     	;# 
   736  0FEB                     	;# 
   737  0FED                     	;# 
   738  0FEE                     	;# 
   739  0FEF                     	;# 
   740  0000                     	;# 
   741  0001                     	;# 
   742  0002                     	;# 
   743  0003                     	;# 
   744  0004                     	;# 
   745  0005                     	;# 
   746  0006                     	;# 
   747  0007                     	;# 
   748  0008                     	;# 
   749  0009                     	;# 
   750  000A                     	;# 
   751  000B                     	;# 
   752  000C                     	;# 
   753  000E                     	;# 
   754  0010                     	;# 
   755  0011                     	;# 
   756  0012                     	;# 
   757  0013                     	;# 
   758  0014                     	;# 
   759  0015                     	;# 
   760  0015                     	;# 
   761  0016                     	;# 
   762  0016                     	;# 
   763  0017                     	;# 
   764  0018                     	;# 
   765  0019                     	;# 
   766  0019                     	;# 
   767  001A                     	;# 
   768  001B                     	;# 
   769  001C                     	;# 
   770  001D                     	;# 
   771  001E                     	;# 
   772  001F                     	;# 
   773  008C                     	;# 
   774  008E                     	;# 
   775  0090                     	;# 
   776  0091                     	;# 
   777  0092                     	;# 
   778  0093                     	;# 
   779  0094                     	;# 
   780  0097                     	;# 
   781  009B                     	;# 
   782  009B                     	;# 
   783  009C                     	;# 
   784  009D                     	;# 
   785  009E                     	;# 
   786  009F                     	;# 
   787  010C                     	;# 
   788  010E                     	;# 
   789  0111                     	;# 
   790  0112                     	;# 
   791  0113                     	;# 
   792  0114                     	;# 
   793  0115                     	;# 
   794  0116                     	;# 
   795  0117                     	;# 
   796  0118                     	;# 
   797  0119                     	;# 
   798  018C                     	;# 
   799  018E                     	;# 
   800  0197                     	;# 
   801  0199                     	;# 
   802  0199                     	;# 
   803  0199                     	;# 
   804  019A                     	;# 
   805  019A                     	;# 
   806  019A                     	;# 
   807  019B                     	;# 
   808  019B                     	;# 
   809  019B                     	;# 
   810  019B                     	;# 
   811  019B                     	;# 
   812  019C                     	;# 
   813  019C                     	;# 
   814  019C                     	;# 
   815  019D                     	;# 
   816  019D                     	;# 
   817  019D                     	;# 
   818  019E                     	;# 
   819  019E                     	;# 
   820  019E                     	;# 
   821  019F                     	;# 
   822  019F                     	;# 
   823  019F                     	;# 
   824  019F                     	;# 
   825  019F                     	;# 
   826  020C                     	;# 
   827  020E                     	;# 
   828  0211                     	;# 
   829  0211                     	;# 
   830  0212                     	;# 
   831  0212                     	;# 
   832  0213                     	;# 
   833  0213                     	;# 
   834  0214                     	;# 
   835  0214                     	;# 
   836  0215                     	;# 
   837  0215                     	;# 
   838  0215                     	;# 
   839  0215                     	;# 
   840  0216                     	;# 
   841  0216                     	;# 
   842  0217                     	;# 
   843  0217                     	;# 
   844  0219                     	;# 
   845  021A                     	;# 
   846  021B                     	;# 
   847  021C                     	;# 
   848  021D                     	;# 
   849  021D                     	;# 
   850  021E                     	;# 
   851  021F                     	;# 
   852  028C                     	;# 
   853  028E                     	;# 
   854  0291                     	;# 
   855  0291                     	;# 
   856  0292                     	;# 
   857  0293                     	;# 
   858  0294                     	;# 
   859  0295                     	;# 
   860  0295                     	;# 
   861  0296                     	;# 
   862  0297                     	;# 
   863  0298                     	;# 
   864  029F                     	;# 
   865  030C                     	;# 
   866  030E                     	;# 
   867  0311                     	;# 
   868  0311                     	;# 
   869  0312                     	;# 
   870  0313                     	;# 
   871  0314                     	;# 
   872  0315                     	;# 
   873  0315                     	;# 
   874  0316                     	;# 
   875  0317                     	;# 
   876  0318                     	;# 
   877  038C                     	;# 
   878  038E                     	;# 
   879  0391                     	;# 
   880  0392                     	;# 
   881  0393                     	;# 
   882  0397                     	;# 
   883  0398                     	;# 
   884  0399                     	;# 
   885  039A                     	;# 
   886  039C                     	;# 
   887  039D                     	;# 
   888  039E                     	;# 
   889  039F                     	;# 
   890  0411                     	;# 
   891  0411                     	;# 
   892  0412                     	;# 
   893  0413                     	;# 
   894  0414                     	;# 
   895  0415                     	;# 
   896  0416                     	;# 
   897  0417                     	;# 
   898  0418                     	;# 
   899  0418                     	;# 
   900  0419                     	;# 
   901  041A                     	;# 
   902  041B                     	;# 
   903  041C                     	;# 
   904  041D                     	;# 
   905  041E                     	;# 
   906  041F                     	;# 
   907  0498                     	;# 
   908  0498                     	;# 
   909  0499                     	;# 
   910  049A                     	;# 
   911  049B                     	;# 
   912  049B                     	;# 
   913  049C                     	;# 
   914  049D                     	;# 
   915  049E                     	;# 
   916  049F                     	;# 
   917  0617                     	;# 
   918  0618                     	;# 
   919  0619                     	;# 
   920  0619                     	;# 
   921  061A                     	;# 
   922  061B                     	;# 
   923  061C                     	;# 
   924  061C                     	;# 
   925  061F                     	;# 
   926  0691                     	;# 
   927  0692                     	;# 
   928  0693                     	;# 
   929  0694                     	;# 
   930  0695                     	;# 
   931  0696                     	;# 
   932  0697                     	;# 
   933  0698                     	;# 
   934  0699                     	;# 
   935  0711                     	;# 
   936  0712                     	;# 
   937  0713                     	;# 
   938  0714                     	;# 
   939  0715                     	;# 
   940  0716                     	;# 
   941  0717                     	;# 
   942  0718                     	;# 
   943  0719                     	;# 
   944  0891                     	;# 
   945  0891                     	;# 
   946  0891                     	;# 
   947  0891                     	;# 
   948  0891                     	;# 
   949  0891                     	;# 
   950  0892                     	;# 
   951  0892                     	;# 
   952  0892                     	;# 
   953  0893                     	;# 
   954  0893                     	;# 
   955  0893                     	;# 
   956  0893                     	;# 
   957  0893                     	;# 
   958  0893                     	;# 
   959  0894                     	;# 
   960  0894                     	;# 
   961  0894                     	;# 
   962  0895                     	;# 
   963  0895                     	;# 
   964  0895                     	;# 
   965  0896                     	;# 
   966  0896                     	;# 
   967  0896                     	;# 
   968  089B                     	;# 
   969  0911                     	;# 
   970  0912                     	;# 
   971  0913                     	;# 
   972  0914                     	;# 
   973  0915                     	;# 
   974  0916                     	;# 
   975  0918                     	;# 
   976  0919                     	;# 
   977  091A                     	;# 
   978  091B                     	;# 
   979  091C                     	;# 
   980  091D                     	;# 
   981  091E                     	;# 
   982  091F                     	;# 
   983  0E0F                     	;# 
   984  0E10                     	;# 
   985  0E11                     	;# 
   986  0E12                     	;# 
   987  0E13                     	;# 
   988  0E14                     	;# 
   989  0E15                     	;# 
   990  0E16                     	;# 
   991  0E17                     	;# 
   992  0E18                     	;# 
   993  0E19                     	;# 
   994  0E1A                     	;# 
   995  0E1B                     	;# 
   996  0E1C                     	;# 
   997  0E1D                     	;# 
   998  0E1E                     	;# 
   999  0E1F                     	;# 
  1000  0E20                     	;# 
  1001  0E21                     	;# 
  1002  0E22                     	;# 
  1003  0E24                     	;# 
  1004  0E25                     	;# 
  1005  0E28                     	;# 
  1006  0E29                     	;# 
  1007  0E2A                     	;# 
  1008  0E2B                     	;# 
  1009  0E2C                     	;# 
  1010  0E2D                     	;# 
  1011  0E2E                     	;# 
  1012  0E2F                     	;# 
  1013  0E90                     	;# 
  1014  0E91                     	;# 
  1015  0E92                     	;# 
  1016  0E94                     	;# 
  1017  0E95                     	;# 
  1018  0EA0                     	;# 
  1019  0EA1                     	;# 
  1020  0EA2                     	;# 
  1021  0EA3                     	;# 
  1022  0EA4                     	;# 
  1023  0EA5                     	;# 
  1024  0F0F                     	;# 
  1025  0F10                     	;# 
  1026  0F11                     	;# 
  1027  0F12                     	;# 
  1028  0F13                     	;# 
  1029  0F14                     	;# 
  1030  0F15                     	;# 
  1031  0F16                     	;# 
  1032  0F17                     	;# 
  1033  0F18                     	;# 
  1034  0F19                     	;# 
  1035  0F1A                     	;# 
  1036  0F1B                     	;# 
  1037  0F1C                     	;# 
  1038  0F1D                     	;# 
  1039  0F1E                     	;# 
  1040  0F1F                     	;# 
  1041  0F20                     	;# 
  1042  0F21                     	;# 
  1043  0F22                     	;# 
  1044  0F23                     	;# 
  1045  0F24                     	;# 
  1046  0F25                     	;# 
  1047  0F26                     	;# 
  1048  0F27                     	;# 
  1049  0F28                     	;# 
  1050  0F29                     	;# 
  1051  0F2A                     	;# 
  1052  0F2B                     	;# 
  1053  0F2C                     	;# 
  1054  0F2D                     	;# 
  1055  0F2E                     	;# 
  1056  0F2F                     	;# 
  1057  0F30                     	;# 
  1058  0F31                     	;# 
  1059  0F32                     	;# 
  1060  0F33                     	;# 
  1061  0F34                     	;# 
  1062  0F35                     	;# 
  1063  0F36                     	;# 
  1064  0F37                     	;# 
  1065  0FE4                     	;# 
  1066  0FE5                     	;# 
  1067  0FE6                     	;# 
  1068  0FE7                     	;# 
  1069  0FE8                     	;# 
  1070  0FE9                     	;# 
  1071  0FEA                     	;# 
  1072  0FEB                     	;# 
  1073  0FED                     	;# 
  1074  0FEE                     	;# 
  1075  0FEF                     	;# 
  1076  0000                     	;# 
  1077  0001                     	;# 
  1078  0002                     	;# 
  1079  0003                     	;# 
  1080  0004                     	;# 
  1081  0005                     	;# 
  1082  0006                     	;# 
  1083  0007                     	;# 
  1084  0008                     	;# 
  1085  0009                     	;# 
  1086  000A                     	;# 
  1087  000B                     	;# 
  1088  000C                     	;# 
  1089  000E                     	;# 
  1090  0010                     	;# 
  1091  0011                     	;# 
  1092  0012                     	;# 
  1093  0013                     	;# 
  1094  0014                     	;# 
  1095  0015                     	;# 
  1096  0015                     	;# 
  1097  0016                     	;# 
  1098  0016                     	;# 
  1099  0017                     	;# 
  1100  0018                     	;# 
  1101  0019                     	;# 
  1102  0019                     	;# 
  1103  001A                     	;# 
  1104  001B                     	;# 
  1105  001C                     	;# 
  1106  001D                     	;# 
  1107  001E                     	;# 
  1108  001F                     	;# 
  1109  008C                     	;# 
  1110  008E                     	;# 
  1111  0090                     	;# 
  1112  0091                     	;# 
  1113  0092                     	;# 
  1114  0093                     	;# 
  1115  0094                     	;# 
  1116  0097                     	;# 
  1117  009B                     	;# 
  1118  009B                     	;# 
  1119  009C                     	;# 
  1120  009D                     	;# 
  1121  009E                     	;# 
  1122  009F                     	;# 
  1123  010C                     	;# 
  1124  010E                     	;# 
  1125  0111                     	;# 
  1126  0112                     	;# 
  1127  0113                     	;# 
  1128  0114                     	;# 
  1129  0115                     	;# 
  1130  0116                     	;# 
  1131  0117                     	;# 
  1132  0118                     	;# 
  1133  0119                     	;# 
  1134  018C                     	;# 
  1135  018E                     	;# 
  1136  0197                     	;# 
  1137  0199                     	;# 
  1138  0199                     	;# 
  1139  0199                     	;# 
  1140  019A                     	;# 
  1141  019A                     	;# 
  1142  019A                     	;# 
  1143  019B                     	;# 
  1144  019B                     	;# 
  1145  019B                     	;# 
  1146  019B                     	;# 
  1147  019B                     	;# 
  1148  019C                     	;# 
  1149  019C                     	;# 
  1150  019C                     	;# 
  1151  019D                     	;# 
  1152  019D                     	;# 
  1153  019D                     	;# 
  1154  019E                     	;# 
  1155  019E                     	;# 
  1156  019E                     	;# 
  1157  019F                     	;# 
  1158  019F                     	;# 
  1159  019F                     	;# 
  1160  019F                     	;# 
  1161  019F                     	;# 
  1162  020C                     	;# 
  1163  020E                     	;# 
  1164  0211                     	;# 
  1165  0211                     	;# 
  1166  0212                     	;# 
  1167  0212                     	;# 
  1168  0213                     	;# 
  1169  0213                     	;# 
  1170  0214                     	;# 
  1171  0214                     	;# 
  1172  0215                     	;# 
  1173  0215                     	;# 
  1174  0215                     	;# 
  1175  0215                     	;# 
  1176  0216                     	;# 
  1177  0216                     	;# 
  1178  0217                     	;# 
  1179  0217                     	;# 
  1180  0219                     	;# 
  1181  021A                     	;# 
  1182  021B                     	;# 
  1183  021C                     	;# 
  1184  021D                     	;# 
  1185  021D                     	;# 
  1186  021E                     	;# 
  1187  021F                     	;# 
  1188  028C                     	;# 
  1189  028E                     	;# 
  1190  0291                     	;# 
  1191  0291                     	;# 
  1192  0292                     	;# 
  1193  0293                     	;# 
  1194  0294                     	;# 
  1195  0295                     	;# 
  1196  0295                     	;# 
  1197  0296                     	;# 
  1198  0297                     	;# 
  1199  0298                     	;# 
  1200  029F                     	;# 
  1201  030C                     	;# 
  1202  030E                     	;# 
  1203  0311                     	;# 
  1204  0311                     	;# 
  1205  0312                     	;# 
  1206  0313                     	;# 
  1207  0314                     	;# 
  1208  0315                     	;# 
  1209  0315                     	;# 
  1210  0316                     	;# 
  1211  0317                     	;# 
  1212  0318                     	;# 
  1213  038C                     	;# 
  1214  038E                     	;# 
  1215  0391                     	;# 
  1216  0392                     	;# 
  1217  0393                     	;# 
  1218  0397                     	;# 
  1219  0398                     	;# 
  1220  0399                     	;# 
  1221  039A                     	;# 
  1222  039C                     	;# 
  1223  039D                     	;# 
  1224  039E                     	;# 
  1225  039F                     	;# 
  1226  0411                     	;# 
  1227  0411                     	;# 
  1228  0412                     	;# 
  1229  0413                     	;# 
  1230  0414                     	;# 
  1231  0415                     	;# 
  1232  0416                     	;# 
  1233  0417                     	;# 
  1234  0418                     	;# 
  1235  0418                     	;# 
  1236  0419                     	;# 
  1237  041A                     	;# 
  1238  041B                     	;# 
  1239  041C                     	;# 
  1240  041D                     	;# 
  1241  041E                     	;# 
  1242  041F                     	;# 
  1243  0498                     	;# 
  1244  0498                     	;# 
  1245  0499                     	;# 
  1246  049A                     	;# 
  1247  049B                     	;# 
  1248  049B                     	;# 
  1249  049C                     	;# 
  1250  049D                     	;# 
  1251  049E                     	;# 
  1252  049F                     	;# 
  1253  0617                     	;# 
  1254  0618                     	;# 
  1255  0619                     	;# 
  1256  0619                     	;# 
  1257  061A                     	;# 
  1258  061B                     	;# 
  1259  061C                     	;# 
  1260  061C                     	;# 
  1261  061F                     	;# 
  1262  0691                     	;# 
  1263  0692                     	;# 
  1264  0693                     	;# 
  1265  0694                     	;# 
  1266  0695                     	;# 
  1267  0696                     	;# 
  1268  0697                     	;# 
  1269  0698                     	;# 
  1270  0699                     	;# 
  1271  0711                     	;# 
  1272  0712                     	;# 
  1273  0713                     	;# 
  1274  0714                     	;# 
  1275  0715                     	;# 
  1276  0716                     	;# 
  1277  0717                     	;# 
  1278  0718                     	;# 
  1279  0719                     	;# 
  1280  0891                     	;# 
  1281  0891                     	;# 
  1282  0891                     	;# 
  1283  0891                     	;# 
  1284  0891                     	;# 
  1285  0891                     	;# 
  1286  0892                     	;# 
  1287  0892                     	;# 
  1288  0892                     	;# 
  1289  0893                     	;# 
  1290  0893                     	;# 
  1291  0893                     	;# 
  1292  0893                     	;# 
  1293  0893                     	;# 
  1294  0893                     	;# 
  1295  0894                     	;# 
  1296  0894                     	;# 
  1297  0894                     	;# 
  1298  0895                     	;# 
  1299  0895                     	;# 
  1300  0895                     	;# 
  1301  0896                     	;# 
  1302  0896                     	;# 
  1303  0896                     	;# 
  1304  089B                     	;# 
  1305  0911                     	;# 
  1306  0912                     	;# 
  1307  0913                     	;# 
  1308  0914                     	;# 
  1309  0915                     	;# 
  1310  0916                     	;# 
  1311  0918                     	;# 
  1312  0919                     	;# 
  1313  091A                     	;# 
  1314  091B                     	;# 
  1315  091C                     	;# 
  1316  091D                     	;# 
  1317  091E                     	;# 
  1318  091F                     	;# 
  1319  0E0F                     	;# 
  1320  0E10                     	;# 
  1321  0E11                     	;# 
  1322  0E12                     	;# 
  1323  0E13                     	;# 
  1324  0E14                     	;# 
  1325  0E15                     	;# 
  1326  0E16                     	;# 
  1327  0E17                     	;# 
  1328  0E18                     	;# 
  1329  0E19                     	;# 
  1330  0E1A                     	;# 
  1331  0E1B                     	;# 
  1332  0E1C                     	;# 
  1333  0E1D                     	;# 
  1334  0E1E                     	;# 
  1335  0E1F                     	;# 
  1336  0E20                     	;# 
  1337  0E21                     	;# 
  1338  0E22                     	;# 
  1339  0E24                     	;# 
  1340  0E25                     	;# 
  1341  0E28                     	;# 
  1342  0E29                     	;# 
  1343  0E2A                     	;# 
  1344  0E2B                     	;# 
  1345  0E2C                     	;# 
  1346  0E2D                     	;# 
  1347  0E2E                     	;# 
  1348  0E2F                     	;# 
  1349  0E90                     	;# 
  1350  0E91                     	;# 
  1351  0E92                     	;# 
  1352  0E94                     	;# 
  1353  0E95                     	;# 
  1354  0EA0                     	;# 
  1355  0EA1                     	;# 
  1356  0EA2                     	;# 
  1357  0EA3                     	;# 
  1358  0EA4                     	;# 
  1359  0EA5                     	;# 
  1360  0F0F                     	;# 
  1361  0F10                     	;# 
  1362  0F11                     	;# 
  1363  0F12                     	;# 
  1364  0F13                     	;# 
  1365  0F14                     	;# 
  1366  0F15                     	;# 
  1367  0F16                     	;# 
  1368  0F17                     	;# 
  1369  0F18                     	;# 
  1370  0F19                     	;# 
  1371  0F1A                     	;# 
  1372  0F1B                     	;# 
  1373  0F1C                     	;# 
  1374  0F1D                     	;# 
  1375  0F1E                     	;# 
  1376  0F1F                     	;# 
  1377  0F20                     	;# 
  1378  0F21                     	;# 
  1379  0F22                     	;# 
  1380  0F23                     	;# 
  1381  0F24                     	;# 
  1382  0F25                     	;# 
  1383  0F26                     	;# 
  1384  0F27                     	;# 
  1385  0F28                     	;# 
  1386  0F29                     	;# 
  1387  0F2A                     	;# 
  1388  0F2B                     	;# 
  1389  0F2C                     	;# 
  1390  0F2D                     	;# 
  1391  0F2E                     	;# 
  1392  0F2F                     	;# 
  1393  0F30                     	;# 
  1394  0F31                     	;# 
  1395  0F32                     	;# 
  1396  0F33                     	;# 
  1397  0F34                     	;# 
  1398  0F35                     	;# 
  1399  0F36                     	;# 
  1400  0F37                     	;# 
  1401  0FE4                     	;# 
  1402  0FE5                     	;# 
  1403  0FE6                     	;# 
  1404  0FE7                     	;# 
  1405  0FE8                     	;# 
  1406  0FE9                     	;# 
  1407  0FEA                     	;# 
  1408  0FEB                     	;# 
  1409  0FED                     	;# 
  1410  0FEE                     	;# 
  1411  0FEF                     	;# 
  1412  0000                     	;# 
  1413  0001                     	;# 
  1414  0002                     	;# 
  1415  0003                     	;# 
  1416  0004                     	;# 
  1417  0005                     	;# 
  1418  0006                     	;# 
  1419  0007                     	;# 
  1420  0008                     	;# 
  1421  0009                     	;# 
  1422  000A                     	;# 
  1423  000B                     	;# 
  1424  000C                     	;# 
  1425  000E                     	;# 
  1426  0010                     	;# 
  1427  0011                     	;# 
  1428  0012                     	;# 
  1429  0013                     	;# 
  1430  0014                     	;# 
  1431  0015                     	;# 
  1432  0015                     	;# 
  1433  0016                     	;# 
  1434  0016                     	;# 
  1435  0017                     	;# 
  1436  0018                     	;# 
  1437  0019                     	;# 
  1438  0019                     	;# 
  1439  001A                     	;# 
  1440  001B                     	;# 
  1441  001C                     	;# 
  1442  001D                     	;# 
  1443  001E                     	;# 
  1444  001F                     	;# 
  1445  008C                     	;# 
  1446  008E                     	;# 
  1447  0090                     	;# 
  1448  0091                     	;# 
  1449  0092                     	;# 
  1450  0093                     	;# 
  1451  0094                     	;# 
  1452  0097                     	;# 
  1453  009B                     	;# 
  1454  009B                     	;# 
  1455  009C                     	;# 
  1456  009D                     	;# 
  1457  009E                     	;# 
  1458  009F                     	;# 
  1459  010C                     	;# 
  1460  010E                     	;# 
  1461  0111                     	;# 
  1462  0112                     	;# 
  1463  0113                     	;# 
  1464  0114                     	;# 
  1465  0115                     	;# 
  1466  0116                     	;# 
  1467  0117                     	;# 
  1468  0118                     	;# 
  1469  0119                     	;# 
  1470  018C                     	;# 
  1471  018E                     	;# 
  1472  0197                     	;# 
  1473  0199                     	;# 
  1474  0199                     	;# 
  1475  0199                     	;# 
  1476  019A                     	;# 
  1477  019A                     	;# 
  1478  019A                     	;# 
  1479  019B                     	;# 
  1480  019B                     	;# 
  1481  019B                     	;# 
  1482  019B                     	;# 
  1483  019B                     	;# 
  1484  019C                     	;# 
  1485  019C                     	;# 
  1486  019C                     	;# 
  1487  019D                     	;# 
  1488  019D                     	;# 
  1489  019D                     	;# 
  1490  019E                     	;# 
  1491  019E                     	;# 
  1492  019E                     	;# 
  1493  019F                     	;# 
  1494  019F                     	;# 
  1495  019F                     	;# 
  1496  019F                     	;# 
  1497  019F                     	;# 
  1498  020C                     	;# 
  1499  020E                     	;# 
  1500  0211                     	;# 
  1501  0211                     	;# 
  1502  0212                     	;# 
  1503  0212                     	;# 
  1504  0213                     	;# 
  1505  0213                     	;# 
  1506  0214                     	;# 
  1507  0214                     	;# 
  1508  0215                     	;# 
  1509  0215                     	;# 
  1510  0215                     	;# 
  1511  0215                     	;# 
  1512  0216                     	;# 
  1513  0216                     	;# 
  1514  0217                     	;# 
  1515  0217                     	;# 
  1516  0219                     	;# 
  1517  021A                     	;# 
  1518  021B                     	;# 
  1519  021C                     	;# 
  1520  021D                     	;# 
  1521  021D                     	;# 
  1522  021E                     	;# 
  1523  021F                     	;# 
  1524  028C                     	;# 
  1525  028E                     	;# 
  1526  0291                     	;# 
  1527  0291                     	;# 
  1528  0292                     	;# 
  1529  0293                     	;# 
  1530  0294                     	;# 
  1531  0295                     	;# 
  1532  0295                     	;# 
  1533  0296                     	;# 
  1534  0297                     	;# 
  1535  0298                     	;# 
  1536  029F                     	;# 
  1537  030C                     	;# 
  1538  030E                     	;# 
  1539  0311                     	;# 
  1540  0311                     	;# 
  1541  0312                     	;# 
  1542  0313                     	;# 
  1543  0314                     	;# 
  1544  0315                     	;# 
  1545  0315                     	;# 
  1546  0316                     	;# 
  1547  0317                     	;# 
  1548  0318                     	;# 
  1549  038C                     	;# 
  1550  038E                     	;# 
  1551  0391                     	;# 
  1552  0392                     	;# 
  1553  0393                     	;# 
  1554  0397                     	;# 
  1555  0398                     	;# 
  1556  0399                     	;# 
  1557  039A                     	;# 
  1558  039C                     	;# 
  1559  039D                     	;# 
  1560  039E                     	;# 
  1561  039F                     	;# 
  1562  0411                     	;# 
  1563  0411                     	;# 
  1564  0412                     	;# 
  1565  0413                     	;# 
  1566  0414                     	;# 
  1567  0415                     	;# 
  1568  0416                     	;# 
  1569  0417                     	;# 
  1570  0418                     	;# 
  1571  0418                     	;# 
  1572  0419                     	;# 
  1573  041A                     	;# 
  1574  041B                     	;# 
  1575  041C                     	;# 
  1576  041D                     	;# 
  1577  041E                     	;# 
  1578  041F                     	;# 
  1579  0498                     	;# 
  1580  0498                     	;# 
  1581  0499                     	;# 
  1582  049A                     	;# 
  1583  049B                     	;# 
  1584  049B                     	;# 
  1585  049C                     	;# 
  1586  049D                     	;# 
  1587  049E                     	;# 
  1588  049F                     	;# 
  1589  0617                     	;# 
  1590  0618                     	;# 
  1591  0619                     	;# 
  1592  0619                     	;# 
  1593  061A                     	;# 
  1594  061B                     	;# 
  1595  061C                     	;# 
  1596  061C                     	;# 
  1597  061F                     	;# 
  1598  0691                     	;# 
  1599  0692                     	;# 
  1600  0693                     	;# 
  1601  0694                     	;# 
  1602  0695                     	;# 
  1603  0696                     	;# 
  1604  0697                     	;# 
  1605  0698                     	;# 
  1606  0699                     	;# 
  1607  0711                     	;# 
  1608  0712                     	;# 
  1609  0713                     	;# 
  1610  0714                     	;# 
  1611  0715                     	;# 
  1612  0716                     	;# 
  1613  0717                     	;# 
  1614  0718                     	;# 
  1615  0719                     	;# 
  1616  0891                     	;# 
  1617  0891                     	;# 
  1618  0891                     	;# 
  1619  0891                     	;# 
  1620  0891                     	;# 
  1621  0891                     	;# 
  1622  0892                     	;# 
  1623  0892                     	;# 
  1624  0892                     	;# 
  1625  0893                     	;# 
  1626  0893                     	;# 
  1627  0893                     	;# 
  1628  0893                     	;# 
  1629  0893                     	;# 
  1630  0893                     	;# 
  1631  0894                     	;# 
  1632  0894                     	;# 
  1633  0894                     	;# 
  1634  0895                     	;# 
  1635  0895                     	;# 
  1636  0895                     	;# 
  1637  0896                     	;# 
  1638  0896                     	;# 
  1639  0896                     	;# 
  1640  089B                     	;# 
  1641  0911                     	;# 
  1642  0912                     	;# 
  1643  0913                     	;# 
  1644  0914                     	;# 
  1645  0915                     	;# 
  1646  0916                     	;# 
  1647  0918                     	;# 
  1648  0919                     	;# 
  1649  091A                     	;# 
  1650  091B                     	;# 
  1651  091C                     	;# 
  1652  091D                     	;# 
  1653  091E                     	;# 
  1654  091F                     	;# 
  1655  0E0F                     	;# 
  1656  0E10                     	;# 
  1657  0E11                     	;# 
  1658  0E12                     	;# 
  1659  0E13                     	;# 
  1660  0E14                     	;# 
  1661  0E15                     	;# 
  1662  0E16                     	;# 
  1663  0E17                     	;# 
  1664  0E18                     	;# 
  1665  0E19                     	;# 
  1666  0E1A                     	;# 
  1667  0E1B                     	;# 
  1668  0E1C                     	;# 
  1669  0E1D                     	;# 
  1670  0E1E                     	;# 
  1671  0E1F                     	;# 
  1672  0E20                     	;# 
  1673  0E21                     	;# 
  1674  0E22                     	;# 
  1675  0E24                     	;# 
  1676  0E25                     	;# 
  1677  0E28                     	;# 
  1678  0E29                     	;# 
  1679  0E2A                     	;# 
  1680  0E2B                     	;# 
  1681  0E2C                     	;# 
  1682  0E2D                     	;# 
  1683  0E2E                     	;# 
  1684  0E2F                     	;# 
  1685  0E90                     	;# 
  1686  0E91                     	;# 
  1687  0E92                     	;# 
  1688  0E94                     	;# 
  1689  0E95                     	;# 
  1690  0EA0                     	;# 
  1691  0EA1                     	;# 
  1692  0EA2                     	;# 
  1693  0EA3                     	;# 
  1694  0EA4                     	;# 
  1695  0EA5                     	;# 
  1696  0F0F                     	;# 
  1697  0F10                     	;# 
  1698  0F11                     	;# 
  1699  0F12                     	;# 
  1700  0F13                     	;# 
  1701  0F14                     	;# 
  1702  0F15                     	;# 
  1703  0F16                     	;# 
  1704  0F17                     	;# 
  1705  0F18                     	;# 
  1706  0F19                     	;# 
  1707  0F1A                     	;# 
  1708  0F1B                     	;# 
  1709  0F1C                     	;# 
  1710  0F1D                     	;# 
  1711  0F1E                     	;# 
  1712  0F1F                     	;# 
  1713  0F20                     	;# 
  1714  0F21                     	;# 
  1715  0F22                     	;# 
  1716  0F23                     	;# 
  1717  0F24                     	;# 
  1718  0F25                     	;# 
  1719  0F26                     	;# 
  1720  0F27                     	;# 
  1721  0F28                     	;# 
  1722  0F29                     	;# 
  1723  0F2A                     	;# 
  1724  0F2B                     	;# 
  1725  0F2C                     	;# 
  1726  0F2D                     	;# 
  1727  0F2E                     	;# 
  1728  0F2F                     	;# 
  1729  0F30                     	;# 
  1730  0F31                     	;# 
  1731  0F32                     	;# 
  1732  0F33                     	;# 
  1733  0F34                     	;# 
  1734  0F35                     	;# 
  1735  0F36                     	;# 
  1736  0F37                     	;# 
  1737  0FE4                     	;# 
  1738  0FE5                     	;# 
  1739  0FE6                     	;# 
  1740  0FE7                     	;# 
  1741  0FE8                     	;# 
  1742  0FE9                     	;# 
  1743  0FEA                     	;# 
  1744  0FEB                     	;# 
  1745  0FED                     	;# 
  1746  0FEE                     	;# 
  1747  0FEF                     	;# 
  1748  0000                     	;# 
  1749  0001                     	;# 
  1750  0002                     	;# 
  1751  0003                     	;# 
  1752  0004                     	;# 
  1753  0005                     	;# 
  1754  0006                     	;# 
  1755  0007                     	;# 
  1756  0008                     	;# 
  1757  0009                     	;# 
  1758  000A                     	;# 
  1759  000B                     	;# 
  1760  000C                     	;# 
  1761  000E                     	;# 
  1762  0010                     	;# 
  1763  0011                     	;# 
  1764  0012                     	;# 
  1765  0013                     	;# 
  1766  0014                     	;# 
  1767  0015                     	;# 
  1768  0015                     	;# 
  1769  0016                     	;# 
  1770  0016                     	;# 
  1771  0017                     	;# 
  1772  0018                     	;# 
  1773  0019                     	;# 
  1774  0019                     	;# 
  1775  001A                     	;# 
  1776  001B                     	;# 
  1777  001C                     	;# 
  1778  001D                     	;# 
  1779  001E                     	;# 
  1780  001F                     	;# 
  1781  008C                     	;# 
  1782  008E                     	;# 
  1783  0090                     	;# 
  1784  0091                     	;# 
  1785  0092                     	;# 
  1786  0093                     	;# 
  1787  0094                     	;# 
  1788  0097                     	;# 
  1789  009B                     	;# 
  1790  009B                     	;# 
  1791  009C                     	;# 
  1792  009D                     	;# 
  1793  009E                     	;# 
  1794  009F                     	;# 
  1795  010C                     	;# 
  1796  010E                     	;# 
  1797  0111                     	;# 
  1798  0112                     	;# 
  1799  0113                     	;# 
  1800  0114                     	;# 
  1801  0115                     	;# 
  1802  0116                     	;# 
  1803  0117                     	;# 
  1804  0118                     	;# 
  1805  0119                     	;# 
  1806  018C                     	;# 
  1807  018E                     	;# 
  1808  0197                     	;# 
  1809  0199                     	;# 
  1810  0199                     	;# 
  1811  0199                     	;# 
  1812  019A                     	;# 
  1813  019A                     	;# 
  1814  019A                     	;# 
  1815  019B                     	;# 
  1816  019B                     	;# 
  1817  019B                     	;# 
  1818  019B                     	;# 
  1819  019B                     	;# 
  1820  019C                     	;# 
  1821  019C                     	;# 
  1822  019C                     	;# 
  1823  019D                     	;# 
  1824  019D                     	;# 
  1825  019D                     	;# 
  1826  019E                     	;# 
  1827  019E                     	;# 
  1828  019E                     	;# 
  1829  019F                     	;# 
  1830  019F                     	;# 
  1831  019F                     	;# 
  1832  019F                     	;# 
  1833  019F                     	;# 
  1834  020C                     	;# 
  1835  020E                     	;# 
  1836  0211                     	;# 
  1837  0211                     	;# 
  1838  0212                     	;# 
  1839  0212                     	;# 
  1840  0213                     	;# 
  1841  0213                     	;# 
  1842  0214                     	;# 
  1843  0214                     	;# 
  1844  0215                     	;# 
  1845  0215                     	;# 
  1846  0215                     	;# 
  1847  0215                     	;# 
  1848  0216                     	;# 
  1849  0216                     	;# 
  1850  0217                     	;# 
  1851  0217                     	;# 
  1852  0219                     	;# 
  1853  021A                     	;# 
  1854  021B                     	;# 
  1855  021C                     	;# 
  1856  021D                     	;# 
  1857  021D                     	;# 
  1858  021E                     	;# 
  1859  021F                     	;# 
  1860  028C                     	;# 
  1861  028E                     	;# 
  1862  0291                     	;# 
  1863  0291                     	;# 
  1864  0292                     	;# 
  1865  0293                     	;# 
  1866  0294                     	;# 
  1867  0295                     	;# 
  1868  0295                     	;# 
  1869  0296                     	;# 
  1870  0297                     	;# 
  1871  0298                     	;# 
  1872  029F                     	;# 
  1873  030C                     	;# 
  1874  030E                     	;# 
  1875  0311                     	;# 
  1876  0311                     	;# 
  1877  0312                     	;# 
  1878  0313                     	;# 
  1879  0314                     	;# 
  1880  0315                     	;# 
  1881  0315                     	;# 
  1882  0316                     	;# 
  1883  0317                     	;# 
  1884  0318                     	;# 
  1885  038C                     	;# 
  1886  038E                     	;# 
  1887  0391                     	;# 
  1888  0392                     	;# 
  1889  0393                     	;# 
  1890  0397                     	;# 
  1891  0398                     	;# 
  1892  0399                     	;# 
  1893  039A                     	;# 
  1894  039C                     	;# 
  1895  039D                     	;# 
  1896  039E                     	;# 
  1897  039F                     	;# 
  1898  0411                     	;# 
  1899  0411                     	;# 
  1900  0412                     	;# 
  1901  0413                     	;# 
  1902  0414                     	;# 
  1903  0415                     	;# 
  1904  0416                     	;# 
  1905  0417                     	;# 
  1906  0418                     	;# 
  1907  0418                     	;# 
  1908  0419                     	;# 
  1909  041A                     	;# 
  1910  041B                     	;# 
  1911  041C                     	;# 
  1912  041D                     	;# 
  1913  041E                     	;# 
  1914  041F                     	;# 
  1915  0498                     	;# 
  1916  0498                     	;# 
  1917  0499                     	;# 
  1918  049A                     	;# 
  1919  049B                     	;# 
  1920  049B                     	;# 
  1921  049C                     	;# 
  1922  049D                     	;# 
  1923  049E                     	;# 
  1924  049F                     	;# 
  1925  0617                     	;# 
  1926  0618                     	;# 
  1927  0619                     	;# 
  1928  0619                     	;# 
  1929  061A                     	;# 
  1930  061B                     	;# 
  1931  061C                     	;# 
  1932  061C                     	;# 
  1933  061F                     	;# 
  1934  0691                     	;# 
  1935  0692                     	;# 
  1936  0693                     	;# 
  1937  0694                     	;# 
  1938  0695                     	;# 
  1939  0696                     	;# 
  1940  0697                     	;# 
  1941  0698                     	;# 
  1942  0699                     	;# 
  1943  0711                     	;# 
  1944  0712                     	;# 
  1945  0713                     	;# 
  1946  0714                     	;# 
  1947  0715                     	;# 
  1948  0716                     	;# 
  1949  0717                     	;# 
  1950  0718                     	;# 
  1951  0719                     	;# 
  1952  0891                     	;# 
  1953  0891                     	;# 
  1954  0891                     	;# 
  1955  0891                     	;# 
  1956  0891                     	;# 
  1957  0891                     	;# 
  1958  0892                     	;# 
  1959  0892                     	;# 
  1960  0892                     	;# 
  1961  0893                     	;# 
  1962  0893                     	;# 
  1963  0893                     	;# 
  1964  0893                     	;# 
  1965  0893                     	;# 
  1966  0893                     	;# 
  1967  0894                     	;# 
  1968  0894                     	;# 
  1969  0894                     	;# 
  1970  0895                     	;# 
  1971  0895                     	;# 
  1972  0895                     	;# 
  1973  0896                     	;# 
  1974  0896                     	;# 
  1975  0896                     	;# 
  1976  089B                     	;# 
  1977  0911                     	;# 
  1978  0912                     	;# 
  1979  0913                     	;# 
  1980  0914                     	;# 
  1981  0915                     	;# 
  1982  0916                     	;# 
  1983  0918                     	;# 
  1984  0919                     	;# 
  1985  091A                     	;# 
  1986  091B                     	;# 
  1987  091C                     	;# 
  1988  091D                     	;# 
  1989  091E                     	;# 
  1990  091F                     	;# 
  1991  0E0F                     	;# 
  1992  0E10                     	;# 
  1993  0E11                     	;# 
  1994  0E12                     	;# 
  1995  0E13                     	;# 
  1996  0E14                     	;# 
  1997  0E15                     	;# 
  1998  0E16                     	;# 
  1999  0E17                     	;# 
  2000  0E18                     	;# 
  2001  0E19                     	;# 
  2002  0E1A                     	;# 
  2003  0E1B                     	;# 
  2004  0E1C                     	;# 
  2005  0E1D                     	;# 
  2006  0E1E                     	;# 
  2007  0E1F                     	;# 
  2008  0E20                     	;# 
  2009  0E21                     	;# 
  2010  0E22                     	;# 
  2011  0E24                     	;# 
  2012  0E25                     	;# 
  2013  0E28                     	;# 
  2014  0E29                     	;# 
  2015  0E2A                     	;# 
  2016  0E2B                     	;# 
  2017  0E2C                     	;# 
  2018  0E2D                     	;# 
  2019  0E2E                     	;# 
  2020  0E2F                     	;# 
  2021  0E90                     	;# 
  2022  0E91                     	;# 
  2023  0E92                     	;# 
  2024  0E94                     	;# 
  2025  0E95                     	;# 
  2026  0EA0                     	;# 
  2027  0EA1                     	;# 
  2028  0EA2                     	;# 
  2029  0EA3                     	;# 
  2030  0EA4                     	;# 
  2031  0EA5                     	;# 
  2032  0F0F                     	;# 
  2033  0F10                     	;# 
  2034  0F11                     	;# 
  2035  0F12                     	;# 
  2036  0F13                     	;# 
  2037  0F14                     	;# 
  2038  0F15                     	;# 
  2039  0F16                     	;# 
  2040  0F17                     	;# 
  2041  0F18                     	;# 
  2042  0F19                     	;# 
  2043  0F1A                     	;# 
  2044  0F1B                     	;# 
  2045  0F1C                     	;# 
  2046  0F1D                     	;# 
  2047  0F1E                     	;# 
  2048  0F1F                     	;# 
  2049  0F20                     	;# 
  2050  0F21                     	;# 
  2051  0F22                     	;# 
  2052  0F23                     	;# 
  2053  0F24                     	;# 
  2054  0F25                     	;# 
  2055  0F26                     	;# 
  2056  0F27                     	;# 
  2057  0F28                     	;# 
  2058  0F29                     	;# 
  2059  0F2A                     	;# 
  2060  0F2B                     	;# 
  2061  0F2C                     	;# 
  2062  0F2D                     	;# 
  2063  0F2E                     	;# 
  2064  0F2F                     	;# 
  2065  0F30                     	;# 
  2066  0F31                     	;# 
  2067  0F32                     	;# 
  2068  0F33                     	;# 
  2069  0F34                     	;# 
  2070  0F35                     	;# 
  2071  0F36                     	;# 
  2072  0F37                     	;# 
  2073  0FE4                     	;# 
  2074  0FE5                     	;# 
  2075  0FE6                     	;# 
  2076  0FE7                     	;# 
  2077  0FE8                     	;# 
  2078  0FE9                     	;# 
  2079  0FEA                     	;# 
  2080  0FEB                     	;# 
  2081  0FED                     	;# 
  2082  0FEE                     	;# 
  2083  0FEF                     	;# 
  2084                           
  2085 ;; Function _TMR1_DefaultInterruptHandler is unused but had its address taken
  2086  0000                     
  2087                           	psect	nvCOMMON
  2088  0078                     __pnvCOMMON:	
  2089  0078                     _timer1ReloadVal:	
  2090  0078                     	ds	2
  2091                           
  2092                           	psect	nvBANK0
  2093  0032                     __pnvBANK0:	
  2094  0032                     _TMR1_InterruptHandler:	
  2095  0032                     	ds	2
  2096  0034                     _IOCCF0_InterruptHandler:	
  2097  0034                     	ds	2
  2098  000E                     _PORTCbits	set	14
  2099  001C                     _T1GCONbits	set	28
  2100  001B                     _T1CONbits	set	27
  2101  001B                     _T1CON	set	27
  2102  0019                     _TMR1L	set	25
  2103  001A                     _TMR1H	set	26
  2104  001C                     _T1GCON	set	28
  2105  0011                     _PIR1bits	set	17
  2106  000B                     _INTCONbits	set	11
  2107  0010                     _PIR0bits	set	16
  2108  0091                     _PIE1bits	set	145
  2109  0090                     _PIE0bits	set	144
  2110  008E                     _TRISC	set	142
  2111  008C                     _TRISA	set	140
  2112  0097                     _WDTCON	set	151
  2113  010E                     _LATC	set	270
  2114  010C                     _LATA	set	268
  2115  010E                     _LATCbits	set	270
  2116  018C                     _ANSELA	set	396
  2117  018E                     _ANSELC	set	398
  2118  020E                     _WPUC	set	526
  2119  020C                     _WPUA	set	524
  2120  028E                     _ODCONC	set	654
  2121  028C                     _ODCONA	set	652
  2122  030E                     _SLRCONC	set	782
  2123  030C                     _SLRCONA	set	780
  2124  0397                     _IOCCPbits	set	919
  2125  0398                     _IOCCNbits	set	920
  2126  0399                     _IOCCFbits	set	921
  2127  038E                     _INLVLC	set	910
  2128  038C                     _INLVLA	set	908
  2129  0916                     _PMD5	set	2326
  2130  0915                     _PMD4	set	2325
  2131  0914                     _PMD3	set	2324
  2132  0913                     _PMD2	set	2323
  2133  0912                     _PMD1	set	2322
  2134  0911                     _PMD0	set	2321
  2135  091E                     _OSCTUNE	set	2334
  2136  091F                     _OSCFRQ	set	2335
  2137  091D                     _OSCEN	set	2333
  2138  091B                     _OSCCON3	set	2331
  2139  0919                     _OSCCON1	set	2329
  2140                           
  2141                           ; #config settings
  2142  0000                     
  2143                           	psect	cinit
  2144  002A                     start_initialization:	
  2145  002A                     __initialization:	
  2146                           
  2147                           ; Clear objects allocated to COMMON
  2148  002A  01FA               	clrf	__pbssCOMMON& (0+127)
  2149  002B  01FB               	clrf	(__pbssCOMMON+1)& (0+127)
  2150                           
  2151                           ; Clear objects allocated to BANK0
  2152  002C  3020               	movlw	low __pbssBANK0
  2153  002D  0084               	movwf	4
  2154  002E  3000               	movlw	high __pbssBANK0
  2155  002F  0085               	movwf	5
  2156  0030  3012               	movlw	18
  2157  0031  3181  2189  3180   	fcall	clear_ram0
  2158  0034                     end_of_initialization:	
  2159                           ;End of C runtime variable initialization code
  2160                           
  2161  0034                     __end_of__initialization:	
  2162  0034  107E               	bcf	int$flags,0	;clear compiler interrupt flag (level 1)
  2163  0035  0020               	movlb	0
  2164  0036  3180  28C1         	ljmp	_main	;jump to C main() function
  2165                           
  2166                           	psect	bssCOMMON
  2167  007A                     __pbssCOMMON:	
  2168  007A                     _last_pc_input_state:	
  2169  007A                     	ds	1
  2170  007B                     _cur_pc_input_state:	
  2171  007B                     	ds	1
  2172                           
  2173                           	psect	bssBANK0
  2174  0020                     __pbssBANK0:	
  2175  0020                     _lights:	
  2176  0020                     	ds	8
  2177  0028                     _temp:	
  2178  0028                     	ds	2
  2179  002A                     _cur_sec:	
  2180  002A                     	ds	2
  2181  002C                     _cur_hsec:	
  2182  002C                     	ds	2
  2183  002E                     _cur_ms:	
  2184  002E                     	ds	2
  2185  0030                     _temp_ms:	
  2186  0030                     	ds	2
  2187                           
  2188                           	psect	clrtext
  2189  0189                     clear_ram0:	
  2190                           ;	Called with FSR0 containing the base address, and
  2191                           ;	WREG with the size to clear
  2192                           
  2193  0189  0064               	clrwdt	;clear the watchdog before getting into this loop
  2194  018A                     clrloop0:	
  2195  018A  0180               	clrf	0	;clear RAM location pointed to by FSR
  2196  018B  3101               	addfsr 0,1
  2197  018C  0B89               	decfsz	9,f	;Have we reached the end of clearing yet?
  2198  018D  298A               	goto	clrloop0	;have we reached the end yet?
  2199  018E  3400               	retlw	0	;all done for this memory range, return
  2200                           
  2201                           	psect	cstackCOMMON
  2202  0070                     __pcstackCOMMON:	
  2203  0070                     ?_PMD_Initialize:	
  2204  0070                     ?_PIN_MANAGER_Initialize:	
  2205                           ; 1 bytes @ 0x0
  2206                           
  2207  0070                     ?_OSCILLATOR_Initialize:	
  2208                           ; 1 bytes @ 0x0
  2209                           
  2210  0070                     ?_WDT_Initialize:	
  2211                           ; 1 bytes @ 0x0
  2212                           
  2213  0070                     ?_TMR1_Initialize:	
  2214                           ; 1 bytes @ 0x0
  2215                           
  2216  0070                     ?_IOCCF0_DefaultInterruptHandler:	
  2217                           ; 1 bytes @ 0x0
  2218                           
  2219  0070                     ??_IOCCF0_DefaultInterruptHandler:	
  2220                           ; 1 bytes @ 0x0
  2221                           
  2222  0070                     ?_IOCCF0_ISR:	
  2223                           ; 1 bytes @ 0x0
  2224                           
  2225  0070                     ??_IOCCF0_ISR:	
  2226                           ; 1 bytes @ 0x0
  2227                           
  2228  0070                     ?_TMR1_ISR:	
  2229                           ; 1 bytes @ 0x0
  2230                           
  2231  0070                     ?_SYSTEM_Initialize:	
  2232                           ; 1 bytes @ 0x0
  2233                           
  2234  0070                     ?_PIN_MANAGER_IOC:	
  2235                           ; 1 bytes @ 0x0
  2236                           
  2237  0070                     ??_PIN_MANAGER_IOC:	
  2238                           ; 1 bytes @ 0x0
  2239                           
  2240  0070                     ?_INTERRUPT_InterruptManager:	
  2241                           ; 1 bytes @ 0x0
  2242                           
  2243  0070                     ?_TMR1_StartTimer:	
  2244                           ; 1 bytes @ 0x0
  2245                           
  2246  0070                     ?_TMR1_WriteTimer:	
  2247                           ; 1 bytes @ 0x0
  2248                           
  2249  0070                     ?_PatternCycleInputChanged:	
  2250                           ; 1 bytes @ 0x0
  2251                           
  2252  0070                     ?_SetOutputs:	
  2253                           ; 1 bytes @ 0x0
  2254                           
  2255  0070                     ?_setup:	
  2256                           ; 1 bytes @ 0x0
  2257                           
  2258  0070                     ?_main:	
  2259                           ; 1 bytes @ 0x0
  2260                           
  2261  0070                     TMR1_WriteTimer@timerVal:	
  2262                           ; 1 bytes @ 0x0
  2263                           
  2264                           
  2265                           ; 2 bytes @ 0x0
  2266  0070                     	ds	2
  2267  0072                     ??_PMD_Initialize:	
  2268  0072                     ??_OSCILLATOR_Initialize:	
  2269                           ; 1 bytes @ 0x2
  2270                           
  2271  0072                     ??_WDT_Initialize:	
  2272                           ; 1 bytes @ 0x2
  2273                           
  2274  0072                     ?_IOCCF0_SetInterruptHandler:	
  2275                           ; 1 bytes @ 0x2
  2276                           
  2277  0072                     ??_TMR1_ISR:	
  2278                           ; 1 bytes @ 0x2
  2279                           
  2280  0072                     ?_TMR1_SetInterruptHandler:	
  2281                           ; 1 bytes @ 0x2
  2282                           
  2283  0072                     ?_SetLight:	
  2284                           ; 1 bytes @ 0x2
  2285                           
  2286  0072                     ??_INTERRUPT_InterruptManager:	
  2287                           ; 1 bytes @ 0x2
  2288                           
  2289  0072                     ??_TMR1_StartTimer:	
  2290                           ; 1 bytes @ 0x2
  2291                           
  2292  0072                     ??_TMR1_WriteTimer:	
  2293                           ; 1 bytes @ 0x2
  2294                           
  2295  0072                     ??_PatternCycleInputChanged:	
  2296                           ; 1 bytes @ 0x2
  2297                           
  2298  0072                     SetLight@state:	
  2299                           ; 1 bytes @ 0x2
  2300                           
  2301  0072                     IOCCF0_SetInterruptHandler@InterruptHandler:	
  2302                           ; 1 bytes @ 0x2
  2303                           
  2304  0072                     TMR1_SetInterruptHandler@InterruptHandler:	
  2305                           ; 2 bytes @ 0x2
  2306                           
  2307                           
  2308                           ; 2 bytes @ 0x2
  2309  0072                     	ds	1
  2310  0073                     ??_SetLight:	
  2311                           
  2312                           ; 1 bytes @ 0x3
  2313  0073                     	ds	1
  2314  0074                     ??_PIN_MANAGER_Initialize:	
  2315  0074                     ??_TMR1_Initialize:	
  2316                           ; 1 bytes @ 0x4
  2317                           
  2318  0074                     ??_IOCCF0_SetInterruptHandler:	
  2319                           ; 1 bytes @ 0x4
  2320                           
  2321  0074                     ??_TMR1_SetInterruptHandler:	
  2322                           ; 1 bytes @ 0x4
  2323                           
  2324  0074                     ??_SYSTEM_Initialize:	
  2325                           ; 1 bytes @ 0x4
  2326                           
  2327  0074                     PatternCycleInputChanged@delay_count:	
  2328                           ; 1 bytes @ 0x4
  2329                           
  2330                           
  2331                           ; 2 bytes @ 0x4
  2332  0074                     	ds	1
  2333  0075                     SetLight@light:	
  2334                           
  2335                           ; 1 bytes @ 0x5
  2336  0075                     	ds	1
  2337  0076                     ??_SetOutputs:	
  2338                           
  2339                           ; 1 bytes @ 0x6
  2340  0076                     	ds	1
  2341  0077                     SetOutputs@state:	
  2342                           
  2343                           ; 1 bytes @ 0x7
  2344  0077                     	ds	1
  2345  0078                     ??_setup:	
  2346                           
  2347                           	psect	cstackBANK0
  2348  0036                     __pcstackBANK0:	
  2349                           ; 1 bytes @ 0x8
  2350                           
  2351  0036                     ??_main:	
  2352                           
  2353                           ; 1 bytes @ 0x0
  2354  0036                     	ds	1
  2355                           
  2356                           	psect	maintext
  2357  00C1                     __pmaintext:	
  2358 ;;
  2359 ;;Main: autosize = 0, tempsize = 1, incstack = 0, save=0
  2360 ;;
  2361 ;; *************** function _main *****************
  2362 ;; Defined at:
  2363 ;;		line 46 in file "main.c"
  2364 ;; Parameters:    Size  Location     Type
  2365 ;;		None
  2366 ;; Auto vars:     Size  Location     Type
  2367 ;;		None
  2368 ;; Return value:  Size  Location     Type
  2369 ;;                  1    wreg      void 
  2370 ;; Registers used:
  2371 ;;		wreg, fsr0l, fsr0h, status,2, status,0, pclath, cstack
  2372 ;; Tracked objects:
  2373 ;;		On entry : B1F/0
  2374 ;;		On exit  : 0/0
  2375 ;;		Unchanged: 0/0
  2376 ;; Data sizes:     COMMON   BANK0   BANK1   BANK2   BANK3   BANK4   BANK5   BANK6   BANK7   BANK8   BANK9  BANK10  BANK1
      +1  BANK12
  2377 ;;      Params:         0       0       0       0       0       0       0       0       0       0       0       0       
      +0       0
  2378 ;;      Locals:         0       0       0       0       0       0       0       0       0       0       0       0       
      +0       0
  2379 ;;      Temps:          0       1       0       0       0       0       0       0       0       0       0       0       
      +0       0
  2380 ;;      Totals:         0       1       0       0       0       0       0       0       0       0       0       0       
      +0       0
  2381 ;;Total ram usage:        1 bytes
  2382 ;; Hardware stack levels required when called:    8
  2383 ;; This function calls:
  2384 ;;		_PatternCycleInputChanged
  2385 ;;		_SetOutputs
  2386 ;;		_setup
  2387 ;; This function is called by:
  2388 ;;		Startup code after reset
  2389 ;; This function uses a non-reentrant model
  2390 ;;
  2391                           
  2392                           
  2393                           ;psect for function _main
  2394  00C1                     _main:	
  2395  00C1                     l1277:	
  2396                           ;incstack = 0
  2397                           ; Regs used in _main: [wreg-fsr0h+status,2+status,0+pclath+cstack]
  2398                           
  2399                           
  2400                           ;main.c: 48:     setup();
  2401  00C1  3181  2131  3180   	fcall	_setup
  2402  00C4                     l1279:	
  2403                           
  2404                           ;main.c: 51:     {;main.c: 52:         cur_pc_input_state = PORTCbits.RC5;
  2405  00C4  3000               	movlw	0
  2406  00C5  0020               	movlb	0	; select bank0
  2407  00C6  1A8E               	btfsc	14,5	;volatile
  2408  00C7  3001               	movlw	1
  2409  00C8  00FB               	movwf	_cur_pc_input_state
  2410  00C9                     l1281:	
  2411                           
  2412                           ;main.c: 57:         if ( PatternCycleInputChanged() )
  2413  00C9  3180  206A  3180   	fcall	_PatternCycleInputChanged
  2414  00CC  3A00               	xorlw	0
  2415  00CD  1903               	skipnz
  2416  00CE  28D0               	goto	u241
  2417  00CF  28D1               	goto	u240
  2418  00D0                     u241:	
  2419  00D0  28DF               	goto	l1289
  2420  00D1                     u240:	
  2421  00D1                     l1283:	
  2422                           
  2423                           ;main.c: 58:         {;main.c: 60:             if ( cur_pc_input_state == 0 )
  2424  00D1  087B               	movf	_cur_pc_input_state,w
  2425  00D2  1D03               	btfss	3,2
  2426  00D3  28D5               	goto	u251
  2427  00D4  28D6               	goto	u250
  2428  00D5                     u251:	
  2429  00D5  28DB               	goto	l1287
  2430  00D6                     u250:	
  2431  00D6                     l1285:	
  2432                           
  2433                           ;main.c: 61:             {;main.c: 62:                 SetOutputs( 1 );
  2434  00D6  3001               	movlw	1
  2435  00D7  3180  20E7  3180   	fcall	_SetOutputs
  2436                           
  2437                           ;main.c: 64:             }
  2438  00DA  28DF               	goto	l1289
  2439  00DB                     l1287:	
  2440                           
  2441                           ;main.c: 67:             {;main.c: 68:                 SetOutputs( 0 );
  2442  00DB  3000               	movlw	0
  2443  00DC  3180  20E7  3180   	fcall	_SetOutputs
  2444  00DF                     l1289:	
  2445                           
  2446                           ;main.c: 73:         last_pc_input_state = cur_pc_input_state;
  2447  00DF  087B               	movf	_cur_pc_input_state,w
  2448  00E0  0020               	movlb	0	; select bank0
  2449  00E1  00B6               	movwf	??_main
  2450  00E2  0836               	movf	??_main,w
  2451  00E3  00FA               	movwf	_last_pc_input_state
  2452  00E4  28C4               	goto	l1279
  2453  00E5  3180  2828         	ljmp	start
  2454  00E7                     __end_of_main:	
  2455                           
  2456                           	psect	text1
  2457  0131                     __ptext1:	
  2458 ;; *************** function _setup *****************
  2459 ;; Defined at:
  2460 ;;		line 29 in file "main.c"
  2461 ;; Parameters:    Size  Location     Type
  2462 ;;		None
  2463 ;; Auto vars:     Size  Location     Type
  2464 ;;		None
  2465 ;; Return value:  Size  Location     Type
  2466 ;;                  1    wreg      void 
  2467 ;; Registers used:
  2468 ;;		wreg, fsr0l, fsr0h, status,2, status,0, pclath, cstack
  2469 ;; Tracked objects:
  2470 ;;		On entry : 0/0
  2471 ;;		On exit  : 0/0
  2472 ;;		Unchanged: 0/0
  2473 ;; Data sizes:     COMMON   BANK0   BANK1   BANK2   BANK3   BANK4   BANK5   BANK6   BANK7   BANK8   BANK9  BANK10  BANK1
      +1  BANK12
  2474 ;;      Params:         0       0       0       0       0       0       0       0       0       0       0       0       
      +0       0
  2475 ;;      Locals:         0       0       0       0       0       0       0       0       0       0       0       0       
      +0       0
  2476 ;;      Temps:          0       0       0       0       0       0       0       0       0       0       0       0       
      +0       0
  2477 ;;      Totals:         0       0       0       0       0       0       0       0       0       0       0       0       
      +0       0
  2478 ;;Total ram usage:        0 bytes
  2479 ;; Hardware stack levels used:    1
  2480 ;; Hardware stack levels required when called:    7
  2481 ;; This function calls:
  2482 ;;		_SYSTEM_Initialize
  2483 ;;		_SetOutputs
  2484 ;;		_TMR1_Initialize
  2485 ;;		_TMR1_StartTimer
  2486 ;; This function is called by:
  2487 ;;		_main
  2488 ;; This function uses a non-reentrant model
  2489 ;;
  2490                           
  2491                           
  2492                           ;psect for function _setup
  2493  0131                     _setup:	
  2494  0131                     l1219:	
  2495                           ;incstack = 0
  2496                           ; Regs used in _setup: [wreg-fsr0h+status,2+status,0+pclath+cstack]
  2497                           
  2498                           
  2499                           ;main.c: 32:     SYSTEM_Initialize();
  2500  0131  3181  2141  3181   	fcall	_SYSTEM_Initialize
  2501  0134                     l1221:	
  2502                           
  2503                           ;main.c: 34:     (INTCONbits.GIE = 1);
  2504  0134  178B               	bsf	11,7	;volatile
  2505  0135                     l1223:	
  2506                           
  2507                           ;main.c: 37:     (INTCONbits.PEIE = 1);
  2508  0135  170B               	bsf	11,6	;volatile
  2509                           
  2510                           ;main.c: 40:     TMR1_Initialize();
  2511  0136  3181  2109  3181   	fcall	_TMR1_Initialize
  2512  0139                     l1225:	
  2513                           
  2514                           ;main.c: 41:     TMR1_StartTimer();
  2515  0139  3181  219F  3181   	fcall	_TMR1_StartTimer
  2516  013C                     l1227:	
  2517                           
  2518                           ;main.c: 43:     SetOutputs( 0 );
  2519  013C  3000               	movlw	0
  2520  013D  3180  20E7  3181   	fcall	_SetOutputs
  2521  0140                     l292:	
  2522  0140  0008               	return
  2523  0141                     __end_of_setup:	
  2524                           
  2525                           	psect	text2
  2526  019F                     __ptext2:	
  2527 ;; *************** function _TMR1_StartTimer *****************
  2528 ;; Defined at:
  2529 ;;		line 93 in file "mcc_generated_files/tmr1.c"
  2530 ;; Parameters:    Size  Location     Type
  2531 ;;		None
  2532 ;; Auto vars:     Size  Location     Type
  2533 ;;		None
  2534 ;; Return value:  Size  Location     Type
  2535 ;;                  1    wreg      void 
  2536 ;; Registers used:
  2537 ;;		None
  2538 ;; Tracked objects:
  2539 ;;		On entry : 0/0
  2540 ;;		On exit  : 0/0
  2541 ;;		Unchanged: 0/0
  2542 ;; Data sizes:     COMMON   BANK0   BANK1   BANK2   BANK3   BANK4   BANK5   BANK6   BANK7   BANK8   BANK9  BANK10  BANK1
      +1  BANK12
  2543 ;;      Params:         0       0       0       0       0       0       0       0       0       0       0       0       
      +0       0
  2544 ;;      Locals:         0       0       0       0       0       0       0       0       0       0       0       0       
      +0       0
  2545 ;;      Temps:          0       0       0       0       0       0       0       0       0       0       0       0       
      +0       0
  2546 ;;      Totals:         0       0       0       0       0       0       0       0       0       0       0       0       
      +0       0
  2547 ;;Total ram usage:        0 bytes
  2548 ;; Hardware stack levels used:    1
  2549 ;; Hardware stack levels required when called:    4
  2550 ;; This function calls:
  2551 ;;		Nothing
  2552 ;; This function is called by:
  2553 ;;		_setup
  2554 ;; This function uses a non-reentrant model
  2555 ;;
  2556                           
  2557                           
  2558                           ;psect for function _TMR1_StartTimer
  2559  019F                     _TMR1_StartTimer:	
  2560  019F                     l999:	
  2561                           ;incstack = 0
  2562                           ; Regs used in _TMR1_StartTimer: []
  2563                           
  2564                           
  2565                           ;mcc_generated_files/tmr1.c: 96:     T1CONbits.TMR1ON = 1;
  2566  019F  0020               	movlb	0	; select bank0
  2567  01A0  141B               	bsf	27,0	;volatile
  2568  01A1                     l218:	
  2569  01A1  0008               	return
  2570  01A2                     __end_of_TMR1_StartTimer:	
  2571                           
  2572                           	psect	text3
  2573  00E7                     __ptext3:	
  2574 ;; *************** function _SetOutputs *****************
  2575 ;; Defined at:
  2576 ;;		line 21 in file "main.c"
  2577 ;; Parameters:    Size  Location     Type
  2578 ;;  state           1    wreg     const _Bool 
  2579 ;; Auto vars:     Size  Location     Type
  2580 ;;  state           1    7[COMMON] const _Bool 
  2581 ;; Return value:  Size  Location     Type
  2582 ;;                  1    wreg      void 
  2583 ;; Registers used:
  2584 ;;		wreg, fsr0l, fsr0h, status,2, status,0, pclath, cstack
  2585 ;; Tracked objects:
  2586 ;;		On entry : 0/0
  2587 ;;		On exit  : 0/0
  2588 ;;		Unchanged: 0/0
  2589 ;; Data sizes:     COMMON   BANK0   BANK1   BANK2   BANK3   BANK4   BANK5   BANK6   BANK7   BANK8   BANK9  BANK10  BANK1
      +1  BANK12
  2590 ;;      Params:         0       0       0       0       0       0       0       0       0       0       0       0       
      +0       0
  2591 ;;      Locals:         1       0       0       0       0       0       0       0       0       0       0       0       
      +0       0
  2592 ;;      Temps:          1       0       0       0       0       0       0       0       0       0       0       0       
      +0       0
  2593 ;;      Totals:         2       0       0       0       0       0       0       0       0       0       0       0       
      +0       0
  2594 ;;Total ram usage:        2 bytes
  2595 ;; Hardware stack levels used:    1
  2596 ;; Hardware stack levels required when called:    5
  2597 ;; This function calls:
  2598 ;;		_SetLight
  2599 ;; This function is called by:
  2600 ;;		_setup
  2601 ;;		_main
  2602 ;; This function uses a non-reentrant model
  2603 ;;
  2604                           
  2605                           
  2606                           ;psect for function _SetOutputs
  2607  00E7                     _SetOutputs:	
  2608                           
  2609                           ;incstack = 0
  2610                           ; Regs used in _SetOutputs: [wreg-fsr0h+status,2+status,0+pclath+cstack]
  2611                           ;SetOutputs@state stored from wreg
  2612  00E7  00F7               	movwf	SetOutputs@state
  2613  00E8                     l1207:	
  2614                           
  2615                           ;main.c: 21: void SetOutputs( const _Bool state );main.c: 22: {;main.c: 23:     SetLight
      +                          ( L1, state );
  2616  00E8  0877               	movf	SetOutputs@state,w
  2617  00E9  00F6               	movwf	??_SetOutputs
  2618  00EA  0876               	movf	??_SetOutputs,w
  2619  00EB  00F2               	movwf	SetLight@state
  2620  00EC  3001               	movlw	1
  2621  00ED  3180  2038  3180   	fcall	_SetLight
  2622                           
  2623                           ;main.c: 24:     SetLight( L2, state );
  2624  00F0  0877               	movf	SetOutputs@state,w
  2625  00F1  00F6               	movwf	??_SetOutputs
  2626  00F2  0876               	movf	??_SetOutputs,w
  2627  00F3  00F2               	movwf	SetLight@state
  2628  00F4  3002               	movlw	2
  2629  00F5  3180  2038  3180   	fcall	_SetLight
  2630                           
  2631                           ;main.c: 25:     SetLight( L3, state );
  2632  00F8  0877               	movf	SetOutputs@state,w
  2633  00F9  00F6               	movwf	??_SetOutputs
  2634  00FA  0876               	movf	??_SetOutputs,w
  2635  00FB  00F2               	movwf	SetLight@state
  2636  00FC  3003               	movlw	3
  2637  00FD  3180  2038  3180   	fcall	_SetLight
  2638                           
  2639                           ;main.c: 26:     SetLight( L4, state );
  2640  0100  0877               	movf	SetOutputs@state,w
  2641  0101  00F6               	movwf	??_SetOutputs
  2642  0102  0876               	movf	??_SetOutputs,w
  2643  0103  00F2               	movwf	SetLight@state
  2644  0104  3004               	movlw	4
  2645  0105  3180  2038  3180   	fcall	_SetLight
  2646  0108                     l287:	
  2647  0108  0008               	return
  2648  0109                     __end_of_SetOutputs:	
  2649                           
  2650                           	psect	text4
  2651  0038                     __ptext4:	
  2652 ;; *************** function _SetLight *****************
  2653 ;; Defined at:
  2654 ;;		line 52 in file "mcc_generated_files/pin_manager.c"
  2655 ;; Parameters:    Size  Location     Type
  2656 ;;  light           1    wreg     const enum E6320
  2657 ;;  state           1    2[COMMON] const _Bool 
  2658 ;; Auto vars:     Size  Location     Type
  2659 ;;  light           1    5[COMMON] const enum E6320
  2660 ;; Return value:  Size  Location     Type
  2661 ;;                  1    wreg      void 
  2662 ;; Registers used:
  2663 ;;		wreg, fsr0l, fsr0h, status,2, status,0
  2664 ;; Tracked objects:
  2665 ;;		On entry : 0/0
  2666 ;;		On exit  : 0/0
  2667 ;;		Unchanged: 0/0
  2668 ;; Data sizes:     COMMON   BANK0   BANK1   BANK2   BANK3   BANK4   BANK5   BANK6   BANK7   BANK8   BANK9  BANK10  BANK1
      +1  BANK12
  2669 ;;      Params:         1       0       0       0       0       0       0       0       0       0       0       0       
      +0       0
  2670 ;;      Locals:         1       0       0       0       0       0       0       0       0       0       0       0       
      +0       0
  2671 ;;      Temps:          2       0       0       0       0       0       0       0       0       0       0       0       
      +0       0
  2672 ;;      Totals:         4       0       0       0       0       0       0       0       0       0       0       0       
      +0       0
  2673 ;;Total ram usage:        4 bytes
  2674 ;; Hardware stack levels used:    1
  2675 ;; Hardware stack levels required when called:    4
  2676 ;; This function calls:
  2677 ;;		Nothing
  2678 ;; This function is called by:
  2679 ;;		_SetOutputs
  2680 ;; This function uses a non-reentrant model
  2681 ;;
  2682                           
  2683                           
  2684                           ;psect for function _SetLight
  2685  0038                     _SetLight:	
  2686                           
  2687                           ;incstack = 0
  2688                           ; Regs used in _SetLight: [wreg-fsr0h+status,2+status,0]
  2689                           ;SetLight@light stored from wreg
  2690  0038  00F5               	movwf	SetLight@light
  2691  0039                     l1165:	
  2692                           
  2693                           ;mcc_generated_files/pin_manager.c: 52: void SetLight( const enum Light light, const _Bo
      +                          ol state );mcc_generated_files/pin_manager.c: 53: {;mcc_generated_files/pin_manager.c: 5
      +                          5:     switch ( light )
  2694  0039  2853               	goto	l1171
  2695  003A                     l1167:	
  2696  003A  0C72               	rrf	SetLight@state,w
  2697  003B  0022               	movlb	2	; select bank2
  2698  003C  1C03               	skipc
  2699  003D  108E               	bcf	14,1	;volatile
  2700  003E  1803               	skipnc
  2701  003F  148E               	bsf	14,1	;volatile
  2702  0040                     l110:	
  2703                           ;mcc_generated_files/pin_manager.c: 60:             do { LATCbits.LATC2 = state; } while
      +                          (0);
  2704                           
  2705  0040  0C72               	rrf	SetLight@state,w
  2706  0041  0022               	movlb	2	; select bank2
  2707  0042  1C03               	skipc
  2708  0043  110E               	bcf	14,2	;volatile
  2709  0044  1803               	skipnc
  2710  0045  150E               	bsf	14,2	;volatile
  2711  0046                     l113:	
  2712                           ;mcc_generated_files/pin_manager.c: 62:             do { LATCbits.LATC3 = state; } while
      +                          (0);
  2713                           
  2714  0046  0C72               	rrf	SetLight@state,w
  2715  0047  0022               	movlb	2	; select bank2
  2716  0048  1C03               	skipc
  2717  0049  118E               	bcf	14,3	;volatile
  2718  004A  1803               	skipnc
  2719  004B  158E               	bsf	14,3	;volatile
  2720  004C                     l117:	
  2721                           ;mcc_generated_files/pin_manager.c: 65:             do { LATCbits.LATC4 = state; } while
      +                          (0);
  2722                           
  2723  004C  0C72               	rrf	SetLight@state,w
  2724  004D  0022               	movlb	2	; select bank2
  2725  004E  1C03               	skipc
  2726  004F  120E               	bcf	14,4	;volatile
  2727  0050  1803               	skipnc
  2728  0051  160E               	bsf	14,4	;volatile
  2729  0052  2869               	goto	l120
  2730  0053                     l1171:	
  2731  0053  0875               	movf	SetLight@light,w
  2732  0054  00F3               	movwf	??_SetLight
  2733  0055  01F4               	clrf	??_SetLight+1
  2734                           
  2735                           ; Switch on 2 bytes has been partitioned into a top level switch of size 1, and 1 sub-sw
      +                          itches
  2736                           ; Switch size 1, requested type "simple"
  2737                           ; Number of cases is 1, Range of values is 0 to 0
  2738                           ; switch strategies available:
  2739                           ; Name         Instructions Cycles
  2740                           ; simple_byte            4     3 (average)
  2741                           ; direct_byte            8     6 (fixed)
  2742                           ; jumptable            260     6 (fixed)
  2743                           ;	Chosen strategy is simple_byte
  2744  0056  0874               	movf	??_SetLight+1,w
  2745  0057  3A00               	xorlw	0	; case 0
  2746  0058  1903               	skipnz
  2747  0059  285B               	goto	l1311
  2748  005A  284C               	goto	l117
  2749  005B                     l1311:	
  2750                           
  2751                           ; Switch size 1, requested type "simple"
  2752                           ; Number of cases is 4, Range of values is 1 to 4
  2753                           ; switch strategies available:
  2754                           ; Name         Instructions Cycles
  2755                           ; simple_byte           13     7 (average)
  2756                           ; direct_byte           17     9 (fixed)
  2757                           ; jumptable            263     9 (fixed)
  2758                           ;	Chosen strategy is simple_byte
  2759  005B  0873               	movf	??_SetLight,w
  2760  005C  3A01               	xorlw	1	; case 1
  2761  005D  1903               	skipnz
  2762  005E  283A               	goto	l1167
  2763  005F  3A03               	xorlw	3	; case 2
  2764  0060  1903               	skipnz
  2765  0061  2840               	goto	l110
  2766  0062  3A01               	xorlw	1	; case 3
  2767  0063  1903               	skipnz
  2768  0064  2846               	goto	l113
  2769  0065  3A07               	xorlw	7	; case 4
  2770  0066  1903               	skipnz
  2771  0067  284C               	goto	l117
  2772  0068  284C               	goto	l117
  2773  0069                     l120:	
  2774  0069  0008               	return
  2775  006A                     __end_of_SetLight:	
  2776                           
  2777                           	psect	text5
  2778  0141                     __ptext5:	
  2779 ;; *************** function _SYSTEM_Initialize *****************
  2780 ;; Defined at:
  2781 ;;		line 50 in file "mcc_generated_files/mcc.c"
  2782 ;; Parameters:    Size  Location     Type
  2783 ;;		None
  2784 ;; Auto vars:     Size  Location     Type
  2785 ;;		None
  2786 ;; Return value:  Size  Location     Type
  2787 ;;                  1    wreg      void 
  2788 ;; Registers used:
  2789 ;;		wreg, status,2, status,0, pclath, cstack
  2790 ;; Tracked objects:
  2791 ;;		On entry : 0/0
  2792 ;;		On exit  : 0/0
  2793 ;;		Unchanged: 0/0
  2794 ;; Data sizes:     COMMON   BANK0   BANK1   BANK2   BANK3   BANK4   BANK5   BANK6   BANK7   BANK8   BANK9  BANK10  BANK1
      +1  BANK12
  2795 ;;      Params:         0       0       0       0       0       0       0       0       0       0       0       0       
      +0       0
  2796 ;;      Locals:         0       0       0       0       0       0       0       0       0       0       0       0       
      +0       0
  2797 ;;      Temps:          0       0       0       0       0       0       0       0       0       0       0       0       
      +0       0
  2798 ;;      Totals:         0       0       0       0       0       0       0       0       0       0       0       0       
      +0       0
  2799 ;;Total ram usage:        0 bytes
  2800 ;; Hardware stack levels used:    1
  2801 ;; Hardware stack levels required when called:    6
  2802 ;; This function calls:
  2803 ;;		_OSCILLATOR_Initialize
  2804 ;;		_PIN_MANAGER_Initialize
  2805 ;;		_PMD_Initialize
  2806 ;;		_TMR1_Initialize
  2807 ;;		_WDT_Initialize
  2808 ;; This function is called by:
  2809 ;;		_setup
  2810 ;; This function uses a non-reentrant model
  2811 ;;
  2812                           
  2813                           
  2814                           ;psect for function _SYSTEM_Initialize
  2815  0141                     _SYSTEM_Initialize:	
  2816  0141                     l1177:	
  2817                           ;incstack = 0
  2818                           ; Regs used in _SYSTEM_Initialize: [wreg+status,2+status,0+pclath+cstack]
  2819                           
  2820                           
  2821                           ;mcc_generated_files/mcc.c: 53:     PMD_Initialize();
  2822  0141  3181  2181  3181   	fcall	_PMD_Initialize
  2823  0144                     l1179:	
  2824                           
  2825                           ;mcc_generated_files/mcc.c: 54:     PIN_MANAGER_Initialize();
  2826  0144  3180  2097  3181   	fcall	_PIN_MANAGER_Initialize
  2827  0147                     l1181:	
  2828                           
  2829                           ;mcc_generated_files/mcc.c: 55:     OSCILLATOR_Initialize();
  2830  0147  3181  216F  3181   	fcall	_OSCILLATOR_Initialize
  2831  014A                     l1183:	
  2832                           
  2833                           ;mcc_generated_files/mcc.c: 56:     WDT_Initialize();
  2834  014A  3181  219B  3181   	fcall	_WDT_Initialize
  2835  014D                     l1185:	
  2836                           
  2837                           ;mcc_generated_files/mcc.c: 57:     TMR1_Initialize();
  2838  014D  3181  2109  3181   	fcall	_TMR1_Initialize
  2839  0150                     l49:	
  2840  0150  0008               	return
  2841  0151                     __end_of_SYSTEM_Initialize:	
  2842                           
  2843                           	psect	text6
  2844  019B                     __ptext6:	
  2845 ;; *************** function _WDT_Initialize *****************
  2846 ;; Defined at:
  2847 ;;		line 74 in file "mcc_generated_files/mcc.c"
  2848 ;; Parameters:    Size  Location     Type
  2849 ;;		None
  2850 ;; Auto vars:     Size  Location     Type
  2851 ;;		None
  2852 ;; Return value:  Size  Location     Type
  2853 ;;                  1    wreg      void 
  2854 ;; Registers used:
  2855 ;;		wreg
  2856 ;; Tracked objects:
  2857 ;;		On entry : 0/0
  2858 ;;		On exit  : 0/0
  2859 ;;		Unchanged: 0/0
  2860 ;; Data sizes:     COMMON   BANK0   BANK1   BANK2   BANK3   BANK4   BANK5   BANK6   BANK7   BANK8   BANK9  BANK10  BANK1
      +1  BANK12
  2861 ;;      Params:         0       0       0       0       0       0       0       0       0       0       0       0       
      +0       0
  2862 ;;      Locals:         0       0       0       0       0       0       0       0       0       0       0       0       
      +0       0
  2863 ;;      Temps:          0       0       0       0       0       0       0       0       0       0       0       0       
      +0       0
  2864 ;;      Totals:         0       0       0       0       0       0       0       0       0       0       0       0       
      +0       0
  2865 ;;Total ram usage:        0 bytes
  2866 ;; Hardware stack levels used:    1
  2867 ;; Hardware stack levels required when called:    4
  2868 ;; This function calls:
  2869 ;;		Nothing
  2870 ;; This function is called by:
  2871 ;;		_SYSTEM_Initialize
  2872 ;; This function uses a non-reentrant model
  2873 ;;
  2874                           
  2875                           
  2876                           ;psect for function _WDT_Initialize
  2877  019B                     _WDT_Initialize:	
  2878  019B                     l955:	
  2879                           ;incstack = 0
  2880                           ; Regs used in _WDT_Initialize: [wreg]
  2881                           
  2882                           
  2883                           ;mcc_generated_files/mcc.c: 77:     WDTCON = 0x16;
  2884  019B  3016               	movlw	22
  2885  019C  0021               	movlb	1	; select bank1
  2886  019D  0097               	movwf	23	;volatile
  2887  019E                     l55:	
  2888  019E  0008               	return
  2889  019F                     __end_of_WDT_Initialize:	
  2890                           
  2891                           	psect	text7
  2892  0109                     __ptext7:	
  2893 ;; *************** function _TMR1_Initialize *****************
  2894 ;; Defined at:
  2895 ;;		line 64 in file "mcc_generated_files/tmr1.c"
  2896 ;; Parameters:    Size  Location     Type
  2897 ;;		None
  2898 ;; Auto vars:     Size  Location     Type
  2899 ;;		None
  2900 ;; Return value:  Size  Location     Type
  2901 ;;                  1    wreg      void 
  2902 ;; Registers used:
  2903 ;;		wreg, status,2, status,0, pclath, cstack
  2904 ;; Tracked objects:
  2905 ;;		On entry : 0/0
  2906 ;;		On exit  : 0/0
  2907 ;;		Unchanged: 0/0
  2908 ;; Data sizes:     COMMON   BANK0   BANK1   BANK2   BANK3   BANK4   BANK5   BANK6   BANK7   BANK8   BANK9  BANK10  BANK1
      +1  BANK12
  2909 ;;      Params:         0       0       0       0       0       0       0       0       0       0       0       0       
      +0       0
  2910 ;;      Locals:         0       0       0       0       0       0       0       0       0       0       0       0       
      +0       0
  2911 ;;      Temps:          0       0       0       0       0       0       0       0       0       0       0       0       
      +0       0
  2912 ;;      Totals:         0       0       0       0       0       0       0       0       0       0       0       0       
      +0       0
  2913 ;;Total ram usage:        0 bytes
  2914 ;; Hardware stack levels used:    1
  2915 ;; Hardware stack levels required when called:    5
  2916 ;; This function calls:
  2917 ;;		_TMR1_SetInterruptHandler
  2918 ;; This function is called by:
  2919 ;;		_SYSTEM_Initialize
  2920 ;;		_setup
  2921 ;; This function uses a non-reentrant model
  2922 ;;
  2923                           
  2924                           
  2925                           ;psect for function _TMR1_Initialize
  2926  0109                     _TMR1_Initialize:	
  2927  0109                     l1151:	
  2928                           ;incstack = 0
  2929                           ; Regs used in _TMR1_Initialize: [wreg+status,2+status,0+pclath+cstack]
  2930                           
  2931                           
  2932                           ;mcc_generated_files/tmr1.c: 69:     T1GCON = 0x00;
  2933  0109  0020               	movlb	0	; select bank0
  2934  010A  019C               	clrf	28	;volatile
  2935  010B                     l1153:	
  2936                           
  2937                           ;mcc_generated_files/tmr1.c: 72:     TMR1H = 0xFF;
  2938  010B  30FF               	movlw	255
  2939  010C  009A               	movwf	26	;volatile
  2940  010D                     l1155:	
  2941                           
  2942                           ;mcc_generated_files/tmr1.c: 75:     TMR1L = 0x00;
  2943  010D  0199               	clrf	25	;volatile
  2944  010E                     l1157:	
  2945                           
  2946                           ;mcc_generated_files/tmr1.c: 78:     PIR1bits.TMR1IF = 0;
  2947  010E  1011               	bcf	17,0	;volatile
  2948                           
  2949                           ;mcc_generated_files/tmr1.c: 81:     timer1ReloadVal=(uint16_t)((TMR1H << 8) | TMR1L);
  2950  010F  081A               	movf	26,w	;volatile
  2951  0110  00F9               	movwf	_timer1ReloadVal+1	;volatile
  2952  0111  0819               	movf	25,w	;volatile
  2953  0112  00F8               	movwf	_timer1ReloadVal	;volatile
  2954  0113                     l1159:	
  2955                           
  2956                           ;mcc_generated_files/tmr1.c: 84:     PIE1bits.TMR1IE = 1;
  2957  0113  0021               	movlb	1	; select bank1
  2958  0114  1411               	bsf	17,0	;volatile
  2959  0115                     l1161:	
  2960                           
  2961                           ;mcc_generated_files/tmr1.c: 87:     TMR1_SetInterruptHandler(TMR1_DefaultInterruptHandl
      +                          er);
  2962  0115  3000               	movlw	0
  2963  0116  00F2               	movwf	TMR1_SetInterruptHandler@InterruptHandler
  2964  0117  3000               	movlw	0
  2965  0118  00F3               	movwf	TMR1_SetInterruptHandler@InterruptHandler+1
  2966  0119  3181  218F  3181   	fcall	_TMR1_SetInterruptHandler
  2967  011C                     l1163:	
  2968                           
  2969                           ;mcc_generated_files/tmr1.c: 90:     T1CON = 0x01;
  2970  011C  3001               	movlw	1
  2971  011D  0020               	movlb	0	; select bank0
  2972  011E  009B               	movwf	27	;volatile
  2973  011F                     l215:	
  2974  011F  0008               	return
  2975  0120                     __end_of_TMR1_Initialize:	
  2976                           
  2977                           	psect	text8
  2978  018F                     __ptext8:	
  2979 ;; *************** function _TMR1_SetInterruptHandler *****************
  2980 ;; Defined at:
  2981 ;;		line 173 in file "mcc_generated_files/tmr1.c"
  2982 ;; Parameters:    Size  Location     Type
  2983 ;;  InterruptHan    2    2[COMMON] PTR FTN()void 
  2984 ;;		 -> TMR1_DefaultInterruptHandler(1), 
  2985 ;; Auto vars:     Size  Location     Type
  2986 ;;		None
  2987 ;; Return value:  Size  Location     Type
  2988 ;;                  1    wreg      void 
  2989 ;; Registers used:
  2990 ;;		wreg
  2991 ;; Tracked objects:
  2992 ;;		On entry : 0/0
  2993 ;;		On exit  : 0/0
  2994 ;;		Unchanged: 0/0
  2995 ;; Data sizes:     COMMON   BANK0   BANK1   BANK2   BANK3   BANK4   BANK5   BANK6   BANK7   BANK8   BANK9  BANK10  BANK1
      +1  BANK12
  2996 ;;      Params:         2       0       0       0       0       0       0       0       0       0       0       0       
      +0       0
  2997 ;;      Locals:         0       0       0       0       0       0       0       0       0       0       0       0       
      +0       0
  2998 ;;      Temps:          0       0       0       0       0       0       0       0       0       0       0       0       
      +0       0
  2999 ;;      Totals:         2       0       0       0       0       0       0       0       0       0       0       0       
      +0       0
  3000 ;;Total ram usage:        2 bytes
  3001 ;; Hardware stack levels used:    1
  3002 ;; Hardware stack levels required when called:    4
  3003 ;; This function calls:
  3004 ;;		Nothing
  3005 ;; This function is called by:
  3006 ;;		_TMR1_Initialize
  3007 ;; This function uses a non-reentrant model
  3008 ;;
  3009                           
  3010                           
  3011                           ;psect for function _TMR1_SetInterruptHandler
  3012  018F                     _TMR1_SetInterruptHandler:	
  3013  018F                     l1121:	
  3014                           ;incstack = 0
  3015                           ; Regs used in _TMR1_SetInterruptHandler: [wreg]
  3016                           
  3017                           
  3018                           ;mcc_generated_files/tmr1.c: 174:     TMR1_InterruptHandler = InterruptHandler;
  3019  018F  0873               	movf	TMR1_SetInterruptHandler@InterruptHandler+1,w
  3020  0190  0020               	movlb	0	; select bank0
  3021  0191  00B3               	movwf	_TMR1_InterruptHandler+1
  3022  0192  0872               	movf	TMR1_SetInterruptHandler@InterruptHandler,w
  3023  0193  00B2               	movwf	_TMR1_InterruptHandler
  3024  0194                     l244:	
  3025  0194  0008               	return
  3026  0195                     __end_of_TMR1_SetInterruptHandler:	
  3027                           
  3028                           	psect	text9
  3029  0181                     __ptext9:	
  3030 ;; *************** function _PMD_Initialize *****************
  3031 ;; Defined at:
  3032 ;;		line 80 in file "mcc_generated_files/mcc.c"
  3033 ;; Parameters:    Size  Location     Type
  3034 ;;		None
  3035 ;; Auto vars:     Size  Location     Type
  3036 ;;		None
  3037 ;; Return value:  Size  Location     Type
  3038 ;;                  1    wreg      void 
  3039 ;; Registers used:
  3040 ;;		status,2
  3041 ;; Tracked objects:
  3042 ;;		On entry : 0/0
  3043 ;;		On exit  : 0/0
  3044 ;;		Unchanged: 0/0
  3045 ;; Data sizes:     COMMON   BANK0   BANK1   BANK2   BANK3   BANK4   BANK5   BANK6   BANK7   BANK8   BANK9  BANK10  BANK1
      +1  BANK12
  3046 ;;      Params:         0       0       0       0       0       0       0       0       0       0       0       0       
      +0       0
  3047 ;;      Locals:         0       0       0       0       0       0       0       0       0       0       0       0       
      +0       0
  3048 ;;      Temps:          0       0       0       0       0       0       0       0       0       0       0       0       
      +0       0
  3049 ;;      Totals:         0       0       0       0       0       0       0       0       0       0       0       0       
      +0       0
  3050 ;;Total ram usage:        0 bytes
  3051 ;; Hardware stack levels used:    1
  3052 ;; Hardware stack levels required when called:    4
  3053 ;; This function calls:
  3054 ;;		Nothing
  3055 ;; This function is called by:
  3056 ;;		_SYSTEM_Initialize
  3057 ;; This function uses a non-reentrant model
  3058 ;;
  3059                           
  3060                           
  3061                           ;psect for function _PMD_Initialize
  3062  0181                     _PMD_Initialize:	
  3063  0181                     l917:	
  3064                           ;incstack = 0
  3065                           ; Regs used in _PMD_Initialize: [status,2]
  3066                           
  3067                           
  3068                           ;mcc_generated_files/mcc.c: 83:     PMD0 = 0x00;
  3069  0181  0032               	movlb	18	; select bank18
  3070  0182  0191               	clrf	17	;volatile
  3071                           
  3072                           ;mcc_generated_files/mcc.c: 85:     PMD1 = 0x00;
  3073  0183  0192               	clrf	18	;volatile
  3074                           
  3075                           ;mcc_generated_files/mcc.c: 87:     PMD2 = 0x00;
  3076  0184  0193               	clrf	19	;volatile
  3077                           
  3078                           ;mcc_generated_files/mcc.c: 89:     PMD3 = 0x00;
  3079  0185  0194               	clrf	20	;volatile
  3080                           
  3081                           ;mcc_generated_files/mcc.c: 91:     PMD4 = 0x00;
  3082  0186  0195               	clrf	21	;volatile
  3083                           
  3084                           ;mcc_generated_files/mcc.c: 93:     PMD5 = 0x00;
  3085  0187  0196               	clrf	22	;volatile
  3086  0188                     l58:	
  3087  0188  0008               	return
  3088  0189                     __end_of_PMD_Initialize:	
  3089                           
  3090                           	psect	text10
  3091  0097                     __ptext10:	
  3092 ;; *************** function _PIN_MANAGER_Initialize *****************
  3093 ;; Defined at:
  3094 ;;		line 73 in file "mcc_generated_files/pin_manager.c"
  3095 ;; Parameters:    Size  Location     Type
  3096 ;;		None
  3097 ;; Auto vars:     Size  Location     Type
  3098 ;;		None
  3099 ;; Return value:  Size  Location     Type
  3100 ;;                  1    wreg      void 
  3101 ;; Registers used:
  3102 ;;		wreg, status,2, status,0, pclath, cstack
  3103 ;; Tracked objects:
  3104 ;;		On entry : 0/0
  3105 ;;		On exit  : 0/0
  3106 ;;		Unchanged: 0/0
  3107 ;; Data sizes:     COMMON   BANK0   BANK1   BANK2   BANK3   BANK4   BANK5   BANK6   BANK7   BANK8   BANK9  BANK10  BANK1
      +1  BANK12
  3108 ;;      Params:         0       0       0       0       0       0       0       0       0       0       0       0       
      +0       0
  3109 ;;      Locals:         0       0       0       0       0       0       0       0       0       0       0       0       
      +0       0
  3110 ;;      Temps:          0       0       0       0       0       0       0       0       0       0       0       0       
      +0       0
  3111 ;;      Totals:         0       0       0       0       0       0       0       0       0       0       0       0       
      +0       0
  3112 ;;Total ram usage:        0 bytes
  3113 ;; Hardware stack levels used:    1
  3114 ;; Hardware stack levels required when called:    5
  3115 ;; This function calls:
  3116 ;;		_IOCCF0_SetInterruptHandler
  3117 ;; This function is called by:
  3118 ;;		_SYSTEM_Initialize
  3119 ;; This function uses a non-reentrant model
  3120 ;;
  3121                           
  3122                           
  3123                           ;psect for function _PIN_MANAGER_Initialize
  3124  0097                     _PIN_MANAGER_Initialize:	
  3125  0097                     l1123:	
  3126                           ;incstack = 0
  3127                           ; Regs used in _PIN_MANAGER_Initialize: [wreg+status,2+status,0+pclath+cstack]
  3128                           
  3129                           
  3130                           ;mcc_generated_files/pin_manager.c: 78:     LATA = 0x00;
  3131  0097  0022               	movlb	2	; select bank2
  3132  0098  018C               	clrf	12	;volatile
  3133  0099                     l1125:	
  3134                           
  3135                           ;mcc_generated_files/pin_manager.c: 79:     LATC = 0x20;
  3136  0099  3020               	movlw	32
  3137  009A  008E               	movwf	14	;volatile
  3138  009B                     l1127:	
  3139                           
  3140                           ;mcc_generated_files/pin_manager.c: 84:     TRISA = 0x37;
  3141  009B  3037               	movlw	55
  3142  009C  0021               	movlb	1	; select bank1
  3143  009D  008C               	movwf	12	;volatile
  3144  009E                     l1129:	
  3145                           
  3146                           ;mcc_generated_files/pin_manager.c: 85:     TRISC = 0x21;
  3147  009E  3021               	movlw	33
  3148  009F  008E               	movwf	14	;volatile
  3149  00A0                     l1131:	
  3150                           
  3151                           ;mcc_generated_files/pin_manager.c: 90:     ANSELC = 0x00;
  3152  00A0  0023               	movlb	3	; select bank3
  3153  00A1  018E               	clrf	14	;volatile
  3154                           
  3155                           ;mcc_generated_files/pin_manager.c: 91:     ANSELA = 0x37;
  3156  00A2  3037               	movlw	55
  3157  00A3  008C               	movwf	12	;volatile
  3158  00A4                     l1133:	
  3159                           
  3160                           ;mcc_generated_files/pin_manager.c: 96:     WPUA = 0x00;
  3161  00A4  0024               	movlb	4	; select bank4
  3162  00A5  018C               	clrf	12	;volatile
  3163  00A6                     l1135:	
  3164                           
  3165                           ;mcc_generated_files/pin_manager.c: 97:     WPUC = 0x00;
  3166  00A6  018E               	clrf	14	;volatile
  3167  00A7                     l1137:	
  3168                           
  3169                           ;mcc_generated_files/pin_manager.c: 102:     ODCONA = 0x00;
  3170  00A7  0025               	movlb	5	; select bank5
  3171  00A8  018C               	clrf	12	;volatile
  3172  00A9                     l1139:	
  3173                           
  3174                           ;mcc_generated_files/pin_manager.c: 103:     ODCONC = 0x00;
  3175  00A9  018E               	clrf	14	;volatile
  3176                           
  3177                           ;mcc_generated_files/pin_manager.c: 108:     SLRCONA = 0x37;
  3178  00AA  3037               	movlw	55
  3179  00AB  0026               	movlb	6	; select bank6
  3180  00AC  008C               	movwf	12	;volatile
  3181                           
  3182                           ;mcc_generated_files/pin_manager.c: 109:     SLRCONC = 0x3F;
  3183  00AD  303F               	movlw	63
  3184  00AE  008E               	movwf	14	;volatile
  3185                           
  3186                           ;mcc_generated_files/pin_manager.c: 114:     INLVLA = 0x3F;
  3187  00AF  303F               	movlw	63
  3188  00B0  0027               	movlb	7	; select bank7
  3189  00B1  008C               	movwf	12	;volatile
  3190                           
  3191                           ;mcc_generated_files/pin_manager.c: 115:     INLVLC = 0x3F;
  3192  00B2  303F               	movlw	63
  3193  00B3  008E               	movwf	14	;volatile
  3194  00B4                     l1141:	
  3195                           
  3196                           ;mcc_generated_files/pin_manager.c: 122:     IOCCFbits.IOCCF0 = 0;
  3197  00B4  1019               	bcf	25,0	;volatile
  3198  00B5                     l1143:	
  3199                           
  3200                           ;mcc_generated_files/pin_manager.c: 124:     IOCCNbits.IOCCN0 = 0;
  3201  00B5  1018               	bcf	24,0	;volatile
  3202  00B6                     l1145:	
  3203                           
  3204                           ;mcc_generated_files/pin_manager.c: 126:     IOCCPbits.IOCCP0 = 1;
  3205  00B6  1417               	bsf	23,0	;volatile
  3206  00B7                     l1147:	
  3207                           
  3208                           ;mcc_generated_files/pin_manager.c: 131:     IOCCF0_SetInterruptHandler(IOCCF0_DefaultIn
      +                          terruptHandler);
  3209  00B7  30A2               	movlw	low _IOCCF0_DefaultInterruptHandler
  3210  00B8  00F2               	movwf	IOCCF0_SetInterruptHandler@InterruptHandler
  3211  00B9  3001               	movlw	high _IOCCF0_DefaultInterruptHandler
  3212  00BA  00F3               	movwf	IOCCF0_SetInterruptHandler@InterruptHandler+1
  3213  00BB  3181  2195  3180   	fcall	_IOCCF0_SetInterruptHandler
  3214  00BE                     l1149:	
  3215                           
  3216                           ;mcc_generated_files/pin_manager.c: 134:     PIE0bits.IOCIE = 1;
  3217  00BE  0021               	movlb	1	; select bank1
  3218  00BF  1610               	bsf	16,4	;volatile
  3219  00C0                     l125:	
  3220  00C0  0008               	return
  3221  00C1                     __end_of_PIN_MANAGER_Initialize:	
  3222                           
  3223                           	psect	text11
  3224  0195                     __ptext11:	
  3225 ;; *************** function _IOCCF0_SetInterruptHandler *****************
  3226 ;; Defined at:
  3227 ;;		line 165 in file "mcc_generated_files/pin_manager.c"
  3228 ;; Parameters:    Size  Location     Type
  3229 ;;  InterruptHan    2    2[COMMON] PTR FTN()void 
  3230 ;;		 -> IOCCF0_DefaultInterruptHandler(1), 
  3231 ;; Auto vars:     Size  Location     Type
  3232 ;;		None
  3233 ;; Return value:  Size  Location     Type
  3234 ;;                  1    wreg      void 
  3235 ;; Registers used:
  3236 ;;		wreg
  3237 ;; Tracked objects:
  3238 ;;		On entry : 0/0
  3239 ;;		On exit  : 0/0
  3240 ;;		Unchanged: 0/0
  3241 ;; Data sizes:     COMMON   BANK0   BANK1   BANK2   BANK3   BANK4   BANK5   BANK6   BANK7   BANK8   BANK9  BANK10  BANK1
      +1  BANK12
  3242 ;;      Params:         2       0       0       0       0       0       0       0       0       0       0       0       
      +0       0
  3243 ;;      Locals:         0       0       0       0       0       0       0       0       0       0       0       0       
      +0       0
  3244 ;;      Temps:          0       0       0       0       0       0       0       0       0       0       0       0       
      +0       0
  3245 ;;      Totals:         2       0       0       0       0       0       0       0       0       0       0       0       
      +0       0
  3246 ;;Total ram usage:        2 bytes
  3247 ;; Hardware stack levels used:    1
  3248 ;; Hardware stack levels required when called:    4
  3249 ;; This function calls:
  3250 ;;		Nothing
  3251 ;; This function is called by:
  3252 ;;		_PIN_MANAGER_Initialize
  3253 ;; This function uses a non-reentrant model
  3254 ;;
  3255                           
  3256                           
  3257                           ;psect for function _IOCCF0_SetInterruptHandler
  3258  0195                     _IOCCF0_SetInterruptHandler:	
  3259  0195                     l1119:	
  3260                           ;incstack = 0
  3261                           ; Regs used in _IOCCF0_SetInterruptHandler: [wreg]
  3262                           
  3263                           
  3264                           ;mcc_generated_files/pin_manager.c: 166:     IOCCF0_InterruptHandler = InterruptHandler;
  3265  0195  0873               	movf	IOCCF0_SetInterruptHandler@InterruptHandler+1,w
  3266  0196  0020               	movlb	0	; select bank0
  3267  0197  00B5               	movwf	_IOCCF0_InterruptHandler+1
  3268  0198  0872               	movf	IOCCF0_SetInterruptHandler@InterruptHandler,w
  3269  0199  00B4               	movwf	_IOCCF0_InterruptHandler
  3270  019A                     l136:	
  3271  019A  0008               	return
  3272  019B                     __end_of_IOCCF0_SetInterruptHandler:	
  3273                           
  3274                           	psect	text12
  3275  016F                     __ptext12:	
  3276 ;; *************** function _OSCILLATOR_Initialize *****************
  3277 ;; Defined at:
  3278 ;;		line 60 in file "mcc_generated_files/mcc.c"
  3279 ;; Parameters:    Size  Location     Type
  3280 ;;		None
  3281 ;; Auto vars:     Size  Location     Type
  3282 ;;		None
  3283 ;; Return value:  Size  Location     Type
  3284 ;;                  1    wreg      void 
  3285 ;; Registers used:
  3286 ;;		wreg, status,2
  3287 ;; Tracked objects:
  3288 ;;		On entry : 0/0
  3289 ;;		On exit  : 0/0
  3290 ;;		Unchanged: 0/0
  3291 ;; Data sizes:     COMMON   BANK0   BANK1   BANK2   BANK3   BANK4   BANK5   BANK6   BANK7   BANK8   BANK9  BANK10  BANK1
      +1  BANK12
  3292 ;;      Params:         0       0       0       0       0       0       0       0       0       0       0       0       
      +0       0
  3293 ;;      Locals:         0       0       0       0       0       0       0       0       0       0       0       0       
      +0       0
  3294 ;;      Temps:          0       0       0       0       0       0       0       0       0       0       0       0       
      +0       0
  3295 ;;      Totals:         0       0       0       0       0       0       0       0       0       0       0       0       
      +0       0
  3296 ;;Total ram usage:        0 bytes
  3297 ;; Hardware stack levels used:    1
  3298 ;; Hardware stack levels required when called:    4
  3299 ;; This function calls:
  3300 ;;		Nothing
  3301 ;; This function is called by:
  3302 ;;		_SYSTEM_Initialize
  3303 ;; This function uses a non-reentrant model
  3304 ;;
  3305                           
  3306                           
  3307                           ;psect for function _OSCILLATOR_Initialize
  3308  016F                     _OSCILLATOR_Initialize:	
  3309  016F                     l947:	
  3310                           ;incstack = 0
  3311                           ; Regs used in _OSCILLATOR_Initialize: [wreg+status,2]
  3312                           
  3313                           
  3314                           ;mcc_generated_files/mcc.c: 63:     OSCCON1 = 0x62;
  3315  016F  3062               	movlw	98
  3316  0170  0032               	movlb	18	; select bank18
  3317  0171  0099               	movwf	25	;volatile
  3318  0172                     l949:	
  3319                           
  3320                           ;mcc_generated_files/mcc.c: 65:     OSCCON3 = 0x00;
  3321  0172  019B               	clrf	27	;volatile
  3322  0173                     l951:	
  3323                           
  3324                           ;mcc_generated_files/mcc.c: 67:     OSCEN = 0x00;
  3325  0173  019D               	clrf	29	;volatile
  3326                           
  3327                           ;mcc_generated_files/mcc.c: 69:     OSCFRQ = 0x03;
  3328  0174  3003               	movlw	3
  3329  0175  009F               	movwf	31	;volatile
  3330  0176                     l953:	
  3331                           
  3332                           ;mcc_generated_files/mcc.c: 71:     OSCTUNE = 0x00;
  3333  0176  019E               	clrf	30	;volatile
  3334  0177                     l52:	
  3335  0177  0008               	return
  3336  0178                     __end_of_OSCILLATOR_Initialize:	
  3337                           
  3338                           	psect	text13
  3339  006A                     __ptext13:	
  3340 ;; *************** function _PatternCycleInputChanged *****************
  3341 ;; Defined at:
  3342 ;;		line 40 in file "./pattern_cycle.h"
  3343 ;; Parameters:    Size  Location     Type
  3344 ;;		None
  3345 ;; Auto vars:     Size  Location     Type
  3346 ;;  delay_count     2    4[COMMON] unsigned short 
  3347 ;; Return value:  Size  Location     Type
  3348 ;;                  1    wreg      _Bool 
  3349 ;; Registers used:
  3350 ;;		wreg, status,2, status,0
  3351 ;; Tracked objects:
  3352 ;;		On entry : 0/0
  3353 ;;		On exit  : 0/0
  3354 ;;		Unchanged: 0/0
  3355 ;; Data sizes:     COMMON   BANK0   BANK1   BANK2   BANK3   BANK4   BANK5   BANK6   BANK7   BANK8   BANK9  BANK10  BANK1
      +1  BANK12
  3356 ;;      Params:         0       0       0       0       0       0       0       0       0       0       0       0       
      +0       0
  3357 ;;      Locals:         2       0       0       0       0       0       0       0       0       0       0       0       
      +0       0
  3358 ;;      Temps:          2       0       0       0       0       0       0       0       0       0       0       0       
      +0       0
  3359 ;;      Totals:         4       0       0       0       0       0       0       0       0       0       0       0       
      +0       0
  3360 ;;Total ram usage:        4 bytes
  3361 ;; Hardware stack levels used:    1
  3362 ;; Hardware stack levels required when called:    4
  3363 ;; This function calls:
  3364 ;;		Nothing
  3365 ;; This function is called by:
  3366 ;;		_main
  3367 ;; This function uses a non-reentrant model
  3368 ;;
  3369                           
  3370                           
  3371                           ;psect for function _PatternCycleInputChanged
  3372  006A                     _PatternCycleInputChanged:	
  3373  006A                     l1027:	
  3374                           ;incstack = 0
  3375                           ; Regs used in _PatternCycleInputChanged: [wreg+status,2+status,0]
  3376                           
  3377                           
  3378                           ;./pattern_cycle.h: 42:     if ( cur_pc_input_state != last_pc_input_state )
  3379  006A  087B               	movf	_cur_pc_input_state,w
  3380  006B  067A               	xorwf	_last_pc_input_state,w
  3381  006C  1903               	skipnz
  3382  006D  286F               	goto	u41
  3383  006E  2870               	goto	u40
  3384  006F                     u41:	
  3385  006F  2883               	goto	l1035
  3386  0070                     u40:	
  3387  0070                     l1029:	
  3388                           
  3389                           ;./pattern_cycle.h: 43:     {;./pattern_cycle.h: 44:         uint16_t delay_count = 0;
  3390  0070  01F4               	clrf	PatternCycleInputChanged@delay_count
  3391  0071  01F5               	clrf	PatternCycleInputChanged@delay_count+1
  3392                           
  3393                           ;./pattern_cycle.h: 46:         while ( delay_count++ < 3 )
  3394  0072  2885               	goto	l1039
  3395  0073                     l1031:	
  3396                           
  3397                           ;./pattern_cycle.h: 47:         {;./pattern_cycle.h: 48:             _delay((unsigned lo
      +                          ng)((10)*(1000000/4000.0)));
  3398  0073  3004               	movlw	4
  3399  0074  00F2               	movwf	??_PatternCycleInputChanged
  3400  0075  303E               	movlw	62
  3401  0076                     u267:	
  3402  0076  0B89               	decfsz	9,f
  3403  0077  2876               	goto	u267
  3404  0078  0BF2               	decfsz	??_PatternCycleInputChanged,f
  3405  0079  2876               	goto	u267
  3406  007A                     l1033:	
  3407                           
  3408                           ;./pattern_cycle.h: 50:             if( PORTCbits.RC5 != cur_pc_input_state )
  3409  007A  0020               	movlb	0	; select bank0
  3410  007B  0E0E               	swapf	14,w	;volatile
  3411  007C  0C89               	rrf	9,f
  3412  007D  3901               	andlw	1
  3413  007E  067B               	xorwf	_cur_pc_input_state,w
  3414  007F  1903               	skipnz
  3415  0080  2882               	goto	u51
  3416  0081  2883               	goto	u50
  3417  0082                     u51:	
  3418  0082  2885               	goto	l1039
  3419  0083                     u50:	
  3420  0083                     l1035:	
  3421                           
  3422                           ;./pattern_cycle.h: 51:             {;./pattern_cycle.h: 52:                 return 0;
  3423  0083  3000               	movlw	0
  3424  0084  2896               	goto	l280
  3425  0085                     l1039:	
  3426                           
  3427                           ;./pattern_cycle.h: 46:         while ( delay_count++ < 3 )
  3428  0085  0875               	movf	PatternCycleInputChanged@delay_count+1,w
  3429  0086  00F3               	movwf	??_PatternCycleInputChanged+1
  3430  0087  0874               	movf	PatternCycleInputChanged@delay_count,w
  3431  0088  00F2               	movwf	??_PatternCycleInputChanged
  3432  0089  0AF4               	incf	PatternCycleInputChanged@delay_count,f
  3433  008A  1903               	skipnz
  3434  008B  0AF5               	incf	PatternCycleInputChanged@delay_count+1,f
  3435  008C  3000               	movlw	0
  3436  008D  0273               	subwf	??_PatternCycleInputChanged+1,w
  3437  008E  3003               	movlw	3
  3438  008F  1903               	skipnz
  3439  0090  0272               	subwf	??_PatternCycleInputChanged,w
  3440  0091  1C03               	skipc
  3441  0092  2894               	goto	u61
  3442  0093  2895               	goto	u60
  3443  0094                     u61:	
  3444  0094  2873               	goto	l1031
  3445  0095                     u60:	
  3446  0095                     l1045:	
  3447                           
  3448                           ;./pattern_cycle.h: 59:     return 1;
  3449  0095  3001               	movlw	1
  3450  0096                     l280:	
  3451  0096  0008               	return
  3452  0097                     __end_of_PatternCycleInputChanged:	
  3453                           
  3454                           	psect	intentry
  3455  0004                     __pintentry:	
  3456 ;; *************** function _INTERRUPT_InterruptManager *****************
  3457 ;; Defined at:
  3458 ;;		line 52 in file "mcc_generated_files/interrupt_manager.c"
  3459 ;; Parameters:    Size  Location     Type
  3460 ;;		None
  3461 ;; Auto vars:     Size  Location     Type
  3462 ;;		None
  3463 ;; Return value:  Size  Location     Type
  3464 ;;                  1    wreg      void 
  3465 ;; Registers used:
  3466 ;;		wreg, status,2, status,0, pclath, cstack
  3467 ;; Tracked objects:
  3468 ;;		On entry : 0/0
  3469 ;;		On exit  : 0/0
  3470 ;;		Unchanged: 0/0
  3471 ;; Data sizes:     COMMON   BANK0   BANK1   BANK2   BANK3   BANK4   BANK5   BANK6   BANK7   BANK8   BANK9  BANK10  BANK1
      +1  BANK12
  3472 ;;      Params:         0       0       0       0       0       0       0       0       0       0       0       0       
      +0       0
  3473 ;;      Locals:         0       0       0       0       0       0       0       0       0       0       0       0       
      +0       0
  3474 ;;      Temps:          0       0       0       0       0       0       0       0       0       0       0       0       
      +0       0
  3475 ;;      Totals:         0       0       0       0       0       0       0       0       0       0       0       0       
      +0       0
  3476 ;;Total ram usage:        0 bytes
  3477 ;; Hardware stack levels used:    1
  3478 ;; Hardware stack levels required when called:    3
  3479 ;; This function calls:
  3480 ;;		_PIN_MANAGER_IOC
  3481 ;;		_TMR1_ISR
  3482 ;; This function is called by:
  3483 ;;		Interrupt level 1
  3484 ;; This function uses a non-reentrant model
  3485 ;;
  3486                           
  3487  0004                     _INTERRUPT_InterruptManager:	
  3488                           
  3489                           ;incstack = 0
  3490  0004  147E               	bsf	int$flags,0	;set compiler interrupt flag (level 1)
  3491                           
  3492                           ; Regs used in _INTERRUPT_InterruptManager: [wreg+status,2+status,0+pclath+cstack]
  3493  0005  3180               	pagesel	$
  3494  0006                     i1l1229:	
  3495                           
  3496                           ;mcc_generated_files/interrupt_manager.c: 55:     if(PIE0bits.IOCIE == 1 && PIR0bits.IOC
      +                          IF == 1)
  3497  0006  0021               	movlb	1	; select bank1
  3498  0007  1E10               	btfss	16,4	;volatile
  3499  0008  280A               	goto	u17_21
  3500  0009  280B               	goto	u17_20
  3501  000A                     u17_21:	
  3502  000A  2814               	goto	i1l170
  3503  000B                     u17_20:	
  3504  000B                     i1l1231:	
  3505  000B  0020               	movlb	0	; select bank0
  3506  000C  1E10               	btfss	16,4	;volatile
  3507  000D  280F               	goto	u18_21
  3508  000E  2810               	goto	u18_20
  3509  000F                     u18_21:	
  3510  000F  2814               	goto	i1l170
  3511  0010                     u18_20:	
  3512  0010                     i1l1233:	
  3513                           
  3514                           ;mcc_generated_files/interrupt_manager.c: 56:     {;mcc_generated_files/interrupt_manage
      +                          r.c: 57:         PIN_MANAGER_IOC();
  3515  0010  3181  2178  3180   	fcall	_PIN_MANAGER_IOC
  3516                           
  3517                           ;mcc_generated_files/interrupt_manager.c: 58:     }
  3518  0013  2826               	goto	i1l176
  3519  0014                     i1l170:	
  3520                           ;mcc_generated_files/interrupt_manager.c: 59:     else if(INTCONbits.PEIE == 1)
  3521                           
  3522  0014  1F0B               	btfss	11,6	;volatile
  3523  0015  2817               	goto	u19_21
  3524  0016  2818               	goto	u19_20
  3525  0017                     u19_21:	
  3526  0017  2826               	goto	i1l176
  3527  0018                     u19_20:	
  3528  0018                     i1l1235:	
  3529                           
  3530                           ;mcc_generated_files/interrupt_manager.c: 60:     {;mcc_generated_files/interrupt_manage
      +                          r.c: 61:         if(PIE1bits.TMR1IE == 1 && PIR1bits.TMR1IF == 1)
  3531  0018  0021               	movlb	1	; select bank1
  3532  0019  1C11               	btfss	17,0	;volatile
  3533  001A  281C               	goto	u20_21
  3534  001B  281D               	goto	u20_20
  3535  001C                     u20_21:	
  3536  001C  2826               	goto	i1l175
  3537  001D                     u20_20:	
  3538  001D                     i1l1237:	
  3539  001D  0020               	movlb	0	; select bank0
  3540  001E  1C11               	btfss	17,0	;volatile
  3541  001F  2821               	goto	u21_21
  3542  0020  2822               	goto	u21_20
  3543  0021                     u21_21:	
  3544  0021  2826               	goto	i1l175
  3545  0022                     u21_20:	
  3546  0022                     i1l1239:	
  3547                           
  3548                           ;mcc_generated_files/interrupt_manager.c: 62:         {;mcc_generated_files/interrupt_ma
      +                          nager.c: 63:             TMR1_ISR();
  3549  0022  3181  2151  3180   	fcall	_TMR1_ISR
  3550                           
  3551                           ;mcc_generated_files/interrupt_manager.c: 64:         }
  3552  0025  2826               	goto	i1l176
  3553  0026                     i1l175:	
  3554                           ;mcc_generated_files/interrupt_manager.c: 71:     {;mcc_generated_files/interrupt_manage
      +                          r.c: 73:     }
  3555                           
  3556  0026                     i1l176:	
  3557  0026  107E               	bcf	int$flags,0	;clear compiler interrupt flag (level 1)
  3558  0027  0009               	retfie
  3559  0028                     __end_of_INTERRUPT_InterruptManager:	
  3560                           
  3561                           	psect	text15
  3562  0151                     __ptext15:	
  3563 ;; *************** function _TMR1_ISR *****************
  3564 ;; Defined at:
  3565 ;;		line 157 in file "mcc_generated_files/tmr1.c"
  3566 ;; Parameters:    Size  Location     Type
  3567 ;;		None
  3568 ;; Auto vars:     Size  Location     Type
  3569 ;;		None
  3570 ;; Return value:  Size  Location     Type
  3571 ;;                  1    wreg      void 
  3572 ;; Registers used:
  3573 ;;		wreg, status,2, status,0, pclath, cstack
  3574 ;; Tracked objects:
  3575 ;;		On entry : 0/0
  3576 ;;		On exit  : 0/0
  3577 ;;		Unchanged: 0/0
  3578 ;; Data sizes:     COMMON   BANK0   BANK1   BANK2   BANK3   BANK4   BANK5   BANK6   BANK7   BANK8   BANK9  BANK10  BANK1
      +1  BANK12
  3579 ;;      Params:         0       0       0       0       0       0       0       0       0       0       0       0       
      +0       0
  3580 ;;      Locals:         0       0       0       0       0       0       0       0       0       0       0       0       
      +0       0
  3581 ;;      Temps:          0       0       0       0       0       0       0       0       0       0       0       0       
      +0       0
  3582 ;;      Totals:         0       0       0       0       0       0       0       0       0       0       0       0       
      +0       0
  3583 ;;Total ram usage:        0 bytes
  3584 ;; Hardware stack levels used:    1
  3585 ;; Hardware stack levels required when called:    1
  3586 ;; This function calls:
  3587 ;;		_TMR1_WriteTimer
  3588 ;; This function is called by:
  3589 ;;		_INTERRUPT_InterruptManager
  3590 ;; This function uses a non-reentrant model
  3591 ;;
  3592                           
  3593                           
  3594                           ;psect for function _TMR1_ISR
  3595  0151                     _TMR1_ISR:	
  3596  0151                     i1l1213:	
  3597                           ;incstack = 0
  3598                           ; Regs used in _TMR1_ISR: [wreg+status,2+status,0+pclath+cstack]
  3599                           
  3600                           
  3601                           ;mcc_generated_files/tmr1.c: 161:     PIR1bits.TMR1IF = 0;
  3602  0151  0020               	movlb	0	; select bank0
  3603  0152  1011               	bcf	17,0	;volatile
  3604  0153                     i1l1215:	
  3605                           
  3606                           ;mcc_generated_files/tmr1.c: 162:     TMR1_WriteTimer(timer1ReloadVal);
  3607  0153  0879               	movf	_timer1ReloadVal+1,w	;volatile
  3608  0154  00F1               	movwf	TMR1_WriteTimer@timerVal+1
  3609  0155  0878               	movf	_timer1ReloadVal,w	;volatile
  3610  0156  00F0               	movwf	TMR1_WriteTimer@timerVal
  3611  0157  3181  2120  3181   	fcall	_TMR1_WriteTimer
  3612  015A                     i1l1217:	
  3613                           
  3614                           ;mcc_generated_files/tmr1.c: 164:     cur_ms++;
  3615  015A  3001               	movlw	1
  3616  015B  0020               	movlb	0	; select bank0
  3617  015C  07AE               	addwf	_cur_ms,f
  3618  015D  3000               	movlw	0
  3619  015E  3DAF               	addwfc	_cur_ms+1,f
  3620  015F                     i1l241:	
  3621  015F  0008               	return
  3622  0160                     __end_of_TMR1_ISR:	
  3623                           
  3624                           	psect	text16
  3625  0120                     __ptext16:	
  3626 ;; *************** function _TMR1_WriteTimer *****************
  3627 ;; Defined at:
  3628 ;;		line 120 in file "mcc_generated_files/tmr1.c"
  3629 ;; Parameters:    Size  Location     Type
  3630 ;;  timerVal        2    0[COMMON] unsigned short 
  3631 ;; Auto vars:     Size  Location     Type
  3632 ;;		None
  3633 ;; Return value:  Size  Location     Type
  3634 ;;                  1    wreg      void 
  3635 ;; Registers used:
  3636 ;;		wreg, status,2
  3637 ;; Tracked objects:
  3638 ;;		On entry : 0/0
  3639 ;;		On exit  : 0/0
  3640 ;;		Unchanged: 0/0
  3641 ;; Data sizes:     COMMON   BANK0   BANK1   BANK2   BANK3   BANK4   BANK5   BANK6   BANK7   BANK8   BANK9  BANK10  BANK1
      +1  BANK12
  3642 ;;      Params:         2       0       0       0       0       0       0       0       0       0       0       0       
      +0       0
  3643 ;;      Locals:         0       0       0       0       0       0       0       0       0       0       0       0       
      +0       0
  3644 ;;      Temps:          0       0       0       0       0       0       0       0       0       0       0       0       
      +0       0
  3645 ;;      Totals:         2       0       0       0       0       0       0       0       0       0       0       0       
      +0       0
  3646 ;;Total ram usage:        2 bytes
  3647 ;; Hardware stack levels used:    1
  3648 ;; This function calls:
  3649 ;;		Nothing
  3650 ;; This function is called by:
  3651 ;;		_TMR1_ISR
  3652 ;;		_TMR1_Reload
  3653 ;; This function uses a non-reentrant model
  3654 ;;
  3655                           
  3656                           
  3657                           ;psect for function _TMR1_WriteTimer
  3658  0120                     _TMR1_WriteTimer:	
  3659  0120                     i1l1193:	
  3660                           ;incstack = 0
  3661                           ; Regs used in _TMR1_WriteTimer: [wreg+status,2]
  3662                           
  3663                           
  3664                           ;mcc_generated_files/tmr1.c: 120: void TMR1_WriteTimer(uint16_t timerVal);mcc_generated_
      +                          files/tmr1.c: 121: {;mcc_generated_files/tmr1.c: 122:     if (T1CONbits.T1SYNC == 1)
  3665  0120  0020               	movlb	0	; select bank0
  3666  0121  1D1B               	btfss	27,2	;volatile
  3667  0122  2924               	goto	u15_21
  3668  0123  2925               	goto	u15_20
  3669  0124                     u15_21:	
  3670  0124  292C               	goto	i1l1203
  3671  0125                     u15_20:	
  3672  0125                     i1l1195:	
  3673                           
  3674                           ;mcc_generated_files/tmr1.c: 123:     {;mcc_generated_files/tmr1.c: 125:         T1CONbi
      +                          ts.TMR1ON = 0;
  3675  0125  101B               	bcf	27,0	;volatile
  3676  0126                     i1l1197:	
  3677                           
  3678                           ;mcc_generated_files/tmr1.c: 128:         TMR1H = (timerVal >> 8);
  3679  0126  0871               	movf	TMR1_WriteTimer@timerVal+1,w
  3680  0127  009A               	movwf	26	;volatile
  3681  0128                     i1l1199:	
  3682                           
  3683                           ;mcc_generated_files/tmr1.c: 129:         TMR1L = timerVal;
  3684  0128  0870               	movf	TMR1_WriteTimer@timerVal,w
  3685  0129  0099               	movwf	25	;volatile
  3686  012A                     i1l1201:	
  3687                           
  3688                           ;mcc_generated_files/tmr1.c: 132:         T1CONbits.TMR1ON =1;
  3689  012A  141B               	bsf	27,0	;volatile
  3690                           
  3691                           ;mcc_generated_files/tmr1.c: 133:     }
  3692  012B  2930               	goto	i1l229
  3693  012C                     i1l1203:	
  3694                           
  3695                           ;mcc_generated_files/tmr1.c: 135:     {;mcc_generated_files/tmr1.c: 137:         TMR1H =
      +                           (timerVal >> 8);
  3696  012C  0871               	movf	TMR1_WriteTimer@timerVal+1,w
  3697  012D  009A               	movwf	26	;volatile
  3698  012E                     i1l1205:	
  3699                           
  3700                           ;mcc_generated_files/tmr1.c: 138:         TMR1L = timerVal;
  3701  012E  0870               	movf	TMR1_WriteTimer@timerVal,w
  3702  012F  0099               	movwf	25	;volatile
  3703  0130                     i1l229:	
  3704  0130  0008               	return
  3705  0131                     __end_of_TMR1_WriteTimer:	
  3706                           
  3707                           	psect	text17
  3708  0178                     __ptext17:	
  3709 ;; *************** function _PIN_MANAGER_IOC *****************
  3710 ;; Defined at:
  3711 ;;		line 138 in file "mcc_generated_files/pin_manager.c"
  3712 ;; Parameters:    Size  Location     Type
  3713 ;;		None
  3714 ;; Auto vars:     Size  Location     Type
  3715 ;;		None
  3716 ;; Return value:  Size  Location     Type
  3717 ;;                  1    wreg      void 
  3718 ;; Registers used:
  3719 ;;		wreg, status,2, status,0, pclath, cstack
  3720 ;; Tracked objects:
  3721 ;;		On entry : 0/0
  3722 ;;		On exit  : 0/0
  3723 ;;		Unchanged: 0/0
  3724 ;; Data sizes:     COMMON   BANK0   BANK1   BANK2   BANK3   BANK4   BANK5   BANK6   BANK7   BANK8   BANK9  BANK10  BANK1
      +1  BANK12
  3725 ;;      Params:         0       0       0       0       0       0       0       0       0       0       0       0       
      +0       0
  3726 ;;      Locals:         0       0       0       0       0       0       0       0       0       0       0       0       
      +0       0
  3727 ;;      Temps:          0       0       0       0       0       0       0       0       0       0       0       0       
      +0       0
  3728 ;;      Totals:         0       0       0       0       0       0       0       0       0       0       0       0       
      +0       0
  3729 ;;Total ram usage:        0 bytes
  3730 ;; Hardware stack levels used:    1
  3731 ;; Hardware stack levels required when called:    2
  3732 ;; This function calls:
  3733 ;;		_IOCCF0_ISR
  3734 ;; This function is called by:
  3735 ;;		_INTERRUPT_InterruptManager
  3736 ;; This function uses a non-reentrant model
  3737 ;;
  3738                           
  3739                           
  3740                           ;psect for function _PIN_MANAGER_IOC
  3741  0178                     _PIN_MANAGER_IOC:	
  3742  0178                     i1l1209:	
  3743                           ;incstack = 0
  3744                           ; Regs used in _PIN_MANAGER_IOC: [wreg+status,2+status,0+pclath+cstack]
  3745                           
  3746                           
  3747                           ;mcc_generated_files/pin_manager.c: 141:     if(IOCCFbits.IOCCF0 == 1)
  3748  0178  0027               	movlb	7	; select bank7
  3749  0179  1C19               	btfss	25,0	;volatile
  3750  017A  297C               	goto	u16_21
  3751  017B  297D               	goto	u16_20
  3752  017C                     u16_21:	
  3753  017C  2980               	goto	i1l129
  3754  017D                     u16_20:	
  3755  017D                     i1l1211:	
  3756                           
  3757                           ;mcc_generated_files/pin_manager.c: 142:     {;mcc_generated_files/pin_manager.c: 143:  
      +                                 IOCCF0_ISR();
  3758  017D  3181  2160  3181   	fcall	_IOCCF0_ISR
  3759  0180                     i1l129:	
  3760  0180  0008               	return
  3761  0181                     __end_of_PIN_MANAGER_IOC:	
  3762                           
  3763                           	psect	text18
  3764  0160                     __ptext18:	
  3765 ;; *************** function _IOCCF0_ISR *****************
  3766 ;; Defined at:
  3767 ;;		line 150 in file "mcc_generated_files/pin_manager.c"
  3768 ;; Parameters:    Size  Location     Type
  3769 ;;		None
  3770 ;; Auto vars:     Size  Location     Type
  3771 ;;		None
  3772 ;; Return value:  Size  Location     Type
  3773 ;;                  1    wreg      void 
  3774 ;; Registers used:
  3775 ;;		wreg, status,2, status,0, pclath, cstack
  3776 ;; Tracked objects:
  3777 ;;		On entry : 0/0
  3778 ;;		On exit  : 0/0
  3779 ;;		Unchanged: 0/0
  3780 ;; Data sizes:     COMMON   BANK0   BANK1   BANK2   BANK3   BANK4   BANK5   BANK6   BANK7   BANK8   BANK9  BANK10  BANK1
      +1  BANK12
  3781 ;;      Params:         0       0       0       0       0       0       0       0       0       0       0       0       
      +0       0
  3782 ;;      Locals:         0       0       0       0       0       0       0       0       0       0       0       0       
      +0       0
  3783 ;;      Temps:          0       0       0       0       0       0       0       0       0       0       0       0       
      +0       0
  3784 ;;      Totals:         0       0       0       0       0       0       0       0       0       0       0       0       
      +0       0
  3785 ;;Total ram usage:        0 bytes
  3786 ;; Hardware stack levels used:    1
  3787 ;; Hardware stack levels required when called:    1
  3788 ;; This function calls:
  3789 ;;		Absolute function
  3790 ;;		_IOCCF0_DefaultInterruptHandler
  3791 ;; This function is called by:
  3792 ;;		_PIN_MANAGER_IOC
  3793 ;; This function uses a non-reentrant model
  3794 ;;
  3795                           
  3796                           
  3797                           ;psect for function _IOCCF0_ISR
  3798  0160                     _IOCCF0_ISR:	
  3799  0160                     i1l1187:	
  3800                           ;incstack = 0
  3801                           ; Regs used in _IOCCF0_ISR: [wreg+status,2+status,0+pclath+cstack]
  3802                           
  3803                           
  3804                           ;mcc_generated_files/pin_manager.c: 155:     if(IOCCF0_InterruptHandler)
  3805  0160  0020               	movlb	0	; select bank0
  3806  0161  0834               	movf	_IOCCF0_InterruptHandler,w
  3807  0162  0435               	iorwf	_IOCCF0_InterruptHandler+1,w
  3808  0163  1903               	btfsc	3,2
  3809  0164  2966               	goto	u14_21
  3810  0165  2967               	goto	u14_20
  3811  0166                     u14_21:	
  3812  0166  296C               	goto	i1l1191
  3813  0167                     u14_20:	
  3814  0167                     i1l1189:	
  3815                           
  3816                           ;mcc_generated_files/pin_manager.c: 156:     {;mcc_generated_files/pin_manager.c: 157:  
      +                                 IOCCF0_InterruptHandler();
  3817  0167  0835               	movf	_IOCCF0_InterruptHandler+1,w
  3818  0168  008A               	movwf	10
  3819  0169  0834               	movf	_IOCCF0_InterruptHandler,w
  3820  016A  000A               	callw
  3821  016B  3181               	pagesel	$
  3822  016C                     i1l1191:	
  3823                           
  3824                           ;mcc_generated_files/pin_manager.c: 159:     IOCCFbits.IOCCF0 = 0;
  3825  016C  0027               	movlb	7	; select bank7
  3826  016D  1019               	bcf	25,0	;volatile
  3827  016E                     i1l133:	
  3828  016E  0008               	return
  3829  016F                     __end_of_IOCCF0_ISR:	
  3830                           
  3831                           	psect	text19
  3832  01A2                     __ptext19:	
  3833 ;; *************** function _IOCCF0_DefaultInterruptHandler *****************
  3834 ;; Defined at:
  3835 ;;		line 172 in file "mcc_generated_files/pin_manager.c"
  3836 ;; Parameters:    Size  Location     Type
  3837 ;;		None
  3838 ;; Auto vars:     Size  Location     Type
  3839 ;;		None
  3840 ;; Return value:  Size  Location     Type
  3841 ;;                  1    wreg      void 
  3842 ;; Registers used:
  3843 ;;		None
  3844 ;; Tracked objects:
  3845 ;;		On entry : 0/0
  3846 ;;		On exit  : 0/0
  3847 ;;		Unchanged: 0/0
  3848 ;; Data sizes:     COMMON   BANK0   BANK1   BANK2   BANK3   BANK4   BANK5   BANK6   BANK7   BANK8   BANK9  BANK10  BANK1
      +1  BANK12
  3849 ;;      Params:         0       0       0       0       0       0       0       0       0       0       0       0       
      +0       0
  3850 ;;      Locals:         0       0       0       0       0       0       0       0       0       0       0       0       
      +0       0
  3851 ;;      Temps:          0       0       0       0       0       0       0       0       0       0       0       0       
      +0       0
  3852 ;;      Totals:         0       0       0       0       0       0       0       0       0       0       0       0       
      +0       0
  3853 ;;Total ram usage:        0 bytes
  3854 ;; Hardware stack levels used:    1
  3855 ;; This function calls:
  3856 ;;		Nothing
  3857 ;; This function is called by:
  3858 ;;		_PIN_MANAGER_Initialize
  3859 ;;		_IOCCF0_ISR
  3860 ;; This function uses a non-reentrant model
  3861 ;;
  3862                           
  3863                           
  3864                           ;psect for function _IOCCF0_DefaultInterruptHandler
  3865  01A2                     _IOCCF0_DefaultInterruptHandler:	
  3866  01A2                     i1l139:	
  3867                           ;incstack = 0
  3868                           ; Regs used in _IOCCF0_DefaultInterruptHandler: []
  3869                           
  3870  01A2  0008               	return
  3871  01A3                     __end_of_IOCCF0_DefaultInterruptHandler:	
  3872  007E                     btemp	set	126	;btemp
  3873  007E                     int$flags	set	126
  3874  007E                     wtemp0	set	126


Data Sizes:
    Strings     0
    Constant    0
    Data        0
    BSS         20
    Persistent  38
    Stack       0

Auto Spaces:
    Space          Size  Autos    Used
    COMMON           14      8      12
    BANK0            80      1      23
    BANK1            80      0       0
    BANK2            80      0       0
    BANK3            80      0       0
    BANK4            80      0       0
    BANK5            80      0       0
    BANK6            80      0       0
    BANK7            80      0       0
    BANK8            80      0       0
    BANK9            80      0       0
    BANK10           80      0       0
    BANK11           80      0       0
    BANK12           48      0       0

Pointer List with Targets:

    TMR1_SetInterruptHandler@InterruptHandler	PTR FTN()void  size(2) Largest target is 1
		 -> TMR1_DefaultInterruptHandler(), 

    TMR1_InterruptHandler	PTR FTN()void  size(2) Largest target is 1
		 -> TMR1_DefaultInterruptHandler(), Absolute function(), 

    IOCCF0_SetInterruptHandler@InterruptHandler	PTR FTN()void  size(2) Largest target is 1
		 -> IOCCF0_DefaultInterruptHandler(), 

    IOCCF0_InterruptHandler	PTR FTN()void  size(2) Largest target is 1
		 -> Absolute function(), IOCCF0_DefaultInterruptHandler(), 


Critical Paths under _main in COMMON

    _main->_SetOutputs
    _setup->_SetOutputs
    _SetOutputs->_SetLight
    _TMR1_Initialize->_TMR1_SetInterruptHandler
    _PIN_MANAGER_Initialize->_IOCCF0_SetInterruptHandler

Critical Paths under _INTERRUPT_InterruptManager in COMMON

    _TMR1_ISR->_TMR1_WriteTimer

Critical Paths under _main in BANK0

    None.

Critical Paths under _INTERRUPT_InterruptManager in BANK0

    None.

Critical Paths under _main in BANK1

    None.

Critical Paths under _INTERRUPT_InterruptManager in BANK1

    None.

Critical Paths under _main in BANK2

    None.

Critical Paths under _INTERRUPT_InterruptManager in BANK2

    None.

Critical Paths under _main in BANK3

    None.

Critical Paths under _INTERRUPT_InterruptManager in BANK3

    None.

Critical Paths under _main in BANK4

    None.

Critical Paths under _INTERRUPT_InterruptManager in BANK4

    None.

Critical Paths under _main in BANK5

    None.

Critical Paths under _INTERRUPT_InterruptManager in BANK5

    None.

Critical Paths under _main in BANK6

    None.

Critical Paths under _INTERRUPT_InterruptManager in BANK6

    None.

Critical Paths under _main in BANK7

    None.

Critical Paths under _INTERRUPT_InterruptManager in BANK7

    None.

Critical Paths under _main in BANK8

    None.

Critical Paths under _INTERRUPT_InterruptManager in BANK8

    None.

Critical Paths under _main in BANK9

    None.

Critical Paths under _INTERRUPT_InterruptManager in BANK9

    None.

Critical Paths under _main in BANK10

    None.

Critical Paths under _INTERRUPT_InterruptManager in BANK10

    None.

Critical Paths under _main in BANK11

    None.

Critical Paths under _INTERRUPT_InterruptManager in BANK11

    None.

Critical Paths under _main in BANK12

    None.

Critical Paths under _INTERRUPT_InterruptManager in BANK12

    None.

Call Graph Tables:

 ---------------------------------------------------------------------------------
 (Depth) Function   	        Calls       Base Space   Used Autos Params    Refs
 ---------------------------------------------------------------------------------
 (0) _main                                                 1     1      0    1313
                                              0 BANK0      1     1      0
           _PatternCycleInputChanged
                         _SetOutputs
                              _setup
 ---------------------------------------------------------------------------------
 (1) _setup                                                0     0      0     796
                  _SYSTEM_Initialize
                         _SetOutputs
                    _TMR1_Initialize
                    _TMR1_StartTimer
 ---------------------------------------------------------------------------------
 (2) _TMR1_StartTimer                                      0     0      0       0
 ---------------------------------------------------------------------------------
 (2) _SetOutputs                                           2     2      0     502
                                              6 COMMON     2     2      0
                           _SetLight
 ---------------------------------------------------------------------------------
 (3) _SetLight                                             4     3      1     414
                                              2 COMMON     4     3      1
 ---------------------------------------------------------------------------------
 (2) _SYSTEM_Initialize                                    0     0      0     196
              _OSCILLATOR_Initialize
             _PIN_MANAGER_Initialize
                     _PMD_Initialize
                    _TMR1_Initialize
                     _WDT_Initialize
 ---------------------------------------------------------------------------------
 (3) _WDT_Initialize                                       0     0      0       0
 ---------------------------------------------------------------------------------
 (2) _TMR1_Initialize                                      0     0      0      98
           _TMR1_SetInterruptHandler
 ---------------------------------------------------------------------------------
 (3) _TMR1_SetInterruptHandler                             2     0      2      98
                                              2 COMMON     2     0      2
 ---------------------------------------------------------------------------------
 (3) _PMD_Initialize                                       0     0      0       0
 ---------------------------------------------------------------------------------
 (3) _PIN_MANAGER_Initialize                               0     0      0      98
         _IOCCF0_SetInterruptHandler
 ---------------------------------------------------------------------------------
 (4) _IOCCF0_SetInterruptHandler                           2     0      2      98
                                              2 COMMON     2     0      2
 ---------------------------------------------------------------------------------
 (3) _OSCILLATOR_Initialize                                0     0      0       0
 ---------------------------------------------------------------------------------
 (1) _PatternCycleInputChanged                             4     4      0      15
                                              2 COMMON     4     4      0
 ---------------------------------------------------------------------------------
 Estimated maximum stack depth 4
 ---------------------------------------------------------------------------------
 (Depth) Function   	        Calls       Base Space   Used Autos Params    Refs
 ---------------------------------------------------------------------------------
 (5) _INTERRUPT_InterruptManager                           0     0      0     240
                    _PIN_MANAGER_IOC
                           _TMR1_ISR
 ---------------------------------------------------------------------------------
 (6) _TMR1_ISR                                             0     0      0     240
                    _TMR1_WriteTimer
 ---------------------------------------------------------------------------------
 (7) _TMR1_WriteTimer                                      2     0      2     240
                                              0 COMMON     2     0      2
 ---------------------------------------------------------------------------------
 (6) _PIN_MANAGER_IOC                                      0     0      0       0
                         _IOCCF0_ISR
 ---------------------------------------------------------------------------------
 (7) _IOCCF0_ISR                                           0     0      0       0
                   Absolute function *
     _IOCCF0_DefaultInterruptHandler *
 ---------------------------------------------------------------------------------
 (8) _IOCCF0_DefaultInterruptHandler                       0     0      0       0
 ---------------------------------------------------------------------------------
 (8) Absolute function(Fake)                               0     0      0       0
 ---------------------------------------------------------------------------------
 Estimated maximum stack depth 8
 ---------------------------------------------------------------------------------

 Call Graph Graphs:

 _main (ROOT)
   _PatternCycleInputChanged
   _SetOutputs
     _SetLight
   _setup
     _SYSTEM_Initialize
       _OSCILLATOR_Initialize
       _PIN_MANAGER_Initialize
         _IOCCF0_SetInterruptHandler
       _PMD_Initialize
       _TMR1_Initialize
         _TMR1_SetInterruptHandler
       _WDT_Initialize
     _SetOutputs
       _SetLight
     _TMR1_Initialize
       _TMR1_SetInterruptHandler
     _TMR1_StartTimer

 _INTERRUPT_InterruptManager (ROOT)
   _PIN_MANAGER_IOC
     _IOCCF0_ISR
       Absolute function(Fake) *
       _IOCCF0_DefaultInterruptHandler *
   _TMR1_ISR
     _TMR1_WriteTimer

 Address spaces:
Name               Size   Autos  Total    Cost      Usage
BIGRAM             3F0      0       0       0        0.0%
EEDATA             100      0       0       0        0.0%
NULL                 0      0       0       0        0.0%
CODE                 0      0       0       0        0.0%
BITCOMMON            E      0       0       1        0.0%
BITSFR0              0      0       0       1        0.0%
SFR0                 0      0       0       1        0.0%
COMMON               E      8       C       2       85.7%
BITSFR1              0      0       0       2        0.0%
SFR1                 0      0       0       2        0.0%
BITSFR2              0      0       0       3        0.0%
SFR2                 0      0       0       3        0.0%
STACK                0      0       0       3        0.0%
BITBANK0            50      0       0       4        0.0%
BITSFR3              0      0       0       4        0.0%
SFR3                 0      0       0       4        0.0%
BANK0               50      1      17       5       28.8%
BITSFR4              0      0       0       5        0.0%
SFR4                 0      0       0       5        0.0%
BITBANK1            50      0       0       6        0.0%
BITSFR5              0      0       0       6        0.0%
SFR5                 0      0       0       6        0.0%
BANK1               50      0       0       7        0.0%
BITSFR6              0      0       0       7        0.0%
SFR6                 0      0       0       7        0.0%
BITBANK2            50      0       0       8        0.0%
BITSFR7              0      0       0       8        0.0%
SFR7                 0      0       0       8        0.0%
BANK2               50      0       0       9        0.0%
BITSFR8              0      0       0       9        0.0%
SFR8                 0      0       0       9        0.0%
BITBANK3            50      0       0      10        0.0%
BITSFR9              0      0       0      10        0.0%
SFR9                 0      0       0      10        0.0%
BANK3               50      0       0      11        0.0%
BITSFR10             0      0       0      11        0.0%
SFR10                0      0       0      11        0.0%
BITBANK4            50      0       0      12        0.0%
BITSFR11             0      0       0      12        0.0%
SFR11                0      0       0      12        0.0%
BANK4               50      0       0      13        0.0%
BITSFR12             0      0       0      13        0.0%
SFR12                0      0       0      13        0.0%
BITBANK5            50      0       0      14        0.0%
BITSFR13             0      0       0      14        0.0%
SFR13                0      0       0      14        0.0%
BANK5               50      0       0      15        0.0%
BITSFR14             0      0       0      15        0.0%
SFR14                0      0       0      15        0.0%
BITBANK6            50      0       0      16        0.0%
BITSFR15             0      0       0      16        0.0%
SFR15                0      0       0      16        0.0%
BANK6               50      0       0      17        0.0%
BITSFR16             0      0       0      17        0.0%
SFR16                0      0       0      17        0.0%
BITBANK7            50      0       0      18        0.0%
BITSFR17             0      0       0      18        0.0%
SFR17                0      0       0      18        0.0%
BANK7               50      0       0      19        0.0%
BITSFR18             0      0       0      19        0.0%
SFR18                0      0       0      19        0.0%
BITSFR19             0      0       0      20        0.0%
SFR19                0      0       0      20        0.0%
ABS                  0      0      23      20        0.0%
BITBANK8            50      0       0      21        0.0%
BITSFR20             0      0       0      21        0.0%
SFR20                0      0       0      21        0.0%
BANK8               50      0       0      22        0.0%
BITSFR21             0      0       0      22        0.0%
SFR21                0      0       0      22        0.0%
BITBANK9            50      0       0      23        0.0%
BITSFR22             0      0       0      23        0.0%
SFR22                0      0       0      23        0.0%
BANK9               50      0       0      24        0.0%
BITSFR23             0      0       0      24        0.0%
SFR23                0      0       0      24        0.0%
BITBANK10           50      0       0      25        0.0%
BITSFR24             0      0       0      25        0.0%
SFR24                0      0       0      25        0.0%
BANK10              50      0       0      26        0.0%
BITSFR25             0      0       0      26        0.0%
SFR25                0      0       0      26        0.0%
BITBANK11           50      0       0      27        0.0%
BITSFR26             0      0       0      27        0.0%
SFR26                0      0       0      27        0.0%
BANK11              50      0       0      28        0.0%
BITSFR27             0      0       0      28        0.0%
SFR27                0      0       0      28        0.0%
BITBANK12           30      0       0      29        0.0%
BITSFR28             0      0       0      29        0.0%
SFR28                0      0       0      29        0.0%
BANK12              30      0       0      30        0.0%
BITSFR29             0      0       0      30        0.0%
SFR29                0      0       0      30        0.0%
BITSFR30             0      0       0      31        0.0%
SFR30                0      0       0      31        0.0%
DATA                 0      0      23      31        0.0%
BITSFR31             0      0       0      32        0.0%
SFR31                0      0       0      32        0.0%


Microchip Technology PIC Macro Assembler V2.10 build 88905656 
Symbol Table                                                                                   Thu Apr 23 12:43:46 2020

                               __CFG_CP$OFF 0000                                          l52 0177  
                                        l55 019E                                          l49 0150  
                                        l58 0188                                          u40 0070  
                                        u41 006F                                          u50 0083  
                                        u51 0082                                          u60 0095  
                                        u61 0094                                 __CFG_LVP$ON 0000  
                                       l110 0040                                         l120 0069  
                                       l113 0046                                         l125 00C0  
                                       l117 004C                                         l215 011F  
                                       l136 019A                                         l218 01A1  
                                       l244 0194                                         l280 0096  
                                       l292 0140                                         l287 0108  
                                       l917 0181                                         l951 0173  
                                       l953 0176                                         l947 016F  
                                       l955 019B                                         l949 0172  
                                       l999 019F                                         u240 00D1  
                                       u241 00D0                                         u250 00D6  
                                       u251 00D5                                __CFG_CPD$OFF 0000  
                                       u267 0076                             _timer1ReloadVal 0078  
                   __size_of_PMD_Initialize 0008                                         wreg 0009  
        __end_of_IOCCF0_SetInterruptHandler 019B                  _IOCCF0_SetInterruptHandler 0195  
                                      l1031 0073                                        l1033 007A  
                                      l1121 018F                                        l1035 0083  
                                      l1027 006A                                        l1131 00A0  
                                      l1123 0097                                        l1045 0095  
                                      l1029 0070                                        l1141 00B4  
                                      l1133 00A4                                        l1125 0099  
                                      l1221 0134                                        l1039 0085  
                                      l1119 0195                                        l1143 00B5  
                                      l1135 00A6                                        l1127 009B  
                                      l1151 0109                                        l1311 005B  
                                      l1207 00E8                                        l1223 0135  
                                      l1145 00B6                                        l1137 00A7  
                                      l1129 009E                                        l1161 0115  
                                      l1153 010B                                        l1225 0139  
                                      l1147 00B7                                        l1139 00A9  
                                      l1163 011C                                        l1155 010D  
                                      l1171 0053                                        l1227 013C  
                                      l1219 0131                                        l1149 00BE  
                                      l1157 010E                                        l1181 0147  
                                      l1165 0039                                        l1159 0113  
                                      l1183 014A                                        l1167 003A  
                                      l1185 014D                                        l1177 0141  
                                      l1281 00C9                                        l1179 0144  
                                      l1283 00D1                                        l1285 00D6  
                                      l1277 00C1                                        l1287 00DB  
                                      l1279 00C4                                        l1289 00DF  
                                      _LATA 010C                                        _LATC 010E  
                                      _PMD0 0911                                        _PMD1 0912  
                                      _PMD2 0913                                        _PMD3 0914  
                                      _PMD4 0915                                        _PMD5 0916  
                                      _WPUA 020C                                        _WPUC 020E  
                              __CFG_WRT$OFF 0000                               SetLight@light 0075  
                             __CFG_FCMEN$ON 0000                               SetLight@state 0072  
                                      _main 00C1                                        _temp 0028  
                                      fsr0h 0005                                        indf0 0000  
                                      fsr0l 0004                                        btemp 007E  
                             __CFG_BOREN$ON 0000                               __CFG_BORV$LOW 0000  
                                      start 0028                  ??_TMR1_SetInterruptHandler 0074  
                             __CFG_CSWEN$ON 0000                               __CFG_MCLRE$ON 0000  
            __size_of_OSCILLATOR_Initialize 0009               __end_of_OSCILLATOR_Initialize 0178  
                       __size_of_IOCCF0_ISR 000F                                       ?_main 0070  
                             __CFG_WDTE$OFF 0000                             _TMR1_StartTimer 019F  
                                     _T1CON 001B                              __CFG_DEBUG$OFF 0000  
                                     i1l133 016E                                       i1l129 0180  
                                     i1l241 015F                                       i1l170 0014  
                                     i1l139 01A2                                       i1l229 0130  
                                     i1l175 0026                                       i1l176 0026  
                                     _OSCEN 091D                                       u20_20 001D  
                                     u20_21 001C                                       u21_20 0022  
                                     u21_21 0021                                       u14_20 0167  
                                     u14_21 0166                                       u15_20 0125  
                                     u15_21 0124                                       u16_20 017D  
                                     u16_21 017C                                       u17_20 000B  
                                     u17_21 000A                                       _TMR1H 001A  
                                     _TMR1L 0019                                       u18_20 0010  
                                     u18_21 000F                                       u19_20 0018  
                                     u19_21 0017                                       _TRISA 008C  
                                     _TRISC 008E                            __end_of_TMR1_ISR 0160  
                   __end_of_PIN_MANAGER_IOC 0181                              _WDT_Initialize 019B  
                                     _setup 0131                     __end_of_TMR1_Initialize 0120  
                                     pclath 000A                                       status 0003  
                                     wtemp0 007E                    _PatternCycleInputChanged 006A  
                           _TMR1_WriteTimer 0120                             __initialization 002A  
                              __end_of_main 00E7                 ?_INTERRUPT_InterruptManager 0070  
                                    ??_main 0036                            __end_of_SetLight 006A  
                    __end_of_WDT_Initialize 019F                          _cur_pc_input_state 007B  
                                    ?_setup 0070                                      _ANSELA 018C  
                                    _ANSELC 018E                          __CFG_RSTOSC$HFINT1 0000  
                                    _T1GCON 001C                                      i1l1201 012A  
                   TMR1_WriteTimer@timerVal 0070                                      i1l1211 017D  
                                    i1l1203 012C                                      i1l1205 012E  
                                    i1l1213 0151                                      i1l1215 0153  
                                    i1l1231 000B                                      i1l1209 0178  
                                    i1l1217 015A                                      i1l1233 0010  
                                    i1l1235 0018                                      i1l1237 001D  
                                    i1l1229 0006                                      i1l1191 016C  
                                    i1l1239 0022                                      i1l1193 0120  
                                    _ODCONA 028C                                      i1l1187 0160  
                                    i1l1195 0125                                      _ODCONC 028E  
                                    i1l1189 0167                                      i1l1197 0126  
                                    i1l1199 0128                                      _INLVLA 038C  
                                    _INLVLC 038E                                      _OSCFRQ 091F  
                                    _WDTCON 0097                                  _SetOutputs 00E7  
                            __CFG_PWRTE$OFF 0000                _TMR1_DefaultInterruptHandler 0000  
                           SetOutputs@state 0077                     __end_of_TMR1_StartTimer 01A2  
                            __CFG_STVREN$ON 0000                                      _cur_ms 002E  
                                    _lights 0020                              _PMD_Initialize 0181  
                           ?_WDT_Initialize 0070    TMR1_SetInterruptHandler@InterruptHandler 0072  
IOCCF0_SetInterruptHandler@InterruptHandler 0072                            ?_PIN_MANAGER_IOC 0070  
                   __end_of_TMR1_WriteTimer 0131                                ??_IOCCF0_ISR 0070  
                          ?_TMR1_Initialize 0070                           _SYSTEM_Initialize 0141  
                   __end_of__initialization 0034                          ?_SYSTEM_Initialize 0070  
                            __pcstackCOMMON 0070                         ??_SYSTEM_Initialize 0074  
                                 ?_TMR1_ISR 0070                               __end_of_setup 0141  
                    __end_of_PMD_Initialize 0189                          __end_of_IOCCF0_ISR 016F  
               ?_IOCCF0_SetInterruptHandler 0072                   __end_of_SYSTEM_Initialize 0151  
                                   ??_setup 0078                                  __pbssBANK0 0020  
                                __pnvCOMMON 0078                                 ?_SetOutputs 0070  
                                 ?_SetLight 0072                                  __pmaintext 00C1  
                          ?_TMR1_StartTimer 0070                                  ??_TMR1_ISR 0072  
                           __CFG_PPS1WAY$ON 0000                                  __pintentry 0004  
          ??_IOCCF0_DefaultInterruptHandler 0070             ?_IOCCF0_DefaultInterruptHandler 0070  
                           ?_PMD_Initialize 0070                                     _OSCCON1 0919  
                                   _OSCCON3 091B                                     _OSCTUNE 091E  
                ??_PatternCycleInputChanged 0072                                     _SLRCONA 030C  
                                   _SLRCONC 030E                            ?_TMR1_WriteTimer 0070  
                                ??_SetLight 0073         PatternCycleInputChanged@delay_count 0074  
                                   __ptext1 0131                                     __ptext2 019F  
                                   __ptext3 00E7                                     __ptext4 0038  
                                   __ptext5 0141                                     __ptext6 019B  
                                   __ptext7 0109                                     __ptext8 018F  
                                   __ptext9 0181                                   _T1CONbits 001B  
                                   _cur_sec 002A                       _OSCILLATOR_Initialize 016F  
                       __size_of_SetOutputs 0022           __size_of_TMR1_SetInterruptHandler 0006  
                  ??_PIN_MANAGER_Initialize 0074                   ?_TMR1_SetInterruptHandler 0072  
                                 _IOCCFbits 0399                                     _temp_ms 0030  
                                 _IOCCNbits 0398                                   _IOCCPbits 0397  
                __size_of_SYSTEM_Initialize 0010                                     clrloop0 018A  
                      end_of_initialization 0034                         _last_pc_input_state 007A  
                          ??_WDT_Initialize 0072                                   _PORTCbits 000E  
                          __CFG_FEXTOSC$OFF 0000                           __size_of_TMR1_ISR 000F  
                    ?_OSCILLATOR_Initialize 0070                         start_initialization 002A  
           __size_of_PIN_MANAGER_Initialize 002A                                ??_SetOutputs 0076  
                  __size_of_PIN_MANAGER_IOC 0009                            __CFG_LPBOREN$OFF 0000  
                  __size_of_TMR1_Initialize 0017                           __size_of_SetLight 0032  
                          ??_PMD_Initialize 0072                                 __pbssCOMMON 007A  
                                 ___latbits 0002                          __end_of_SetOutputs 0109  
                             __pcstackBANK0 0036      __end_of_IOCCF0_DefaultInterruptHandler 01A3  
   __size_of_IOCCF0_DefaultInterruptHandler 0001              _IOCCF0_DefaultInterruptHandler 01A2  
                                 __pnvBANK0 0032                      _PIN_MANAGER_Initialize 0097  
          __end_of_TMR1_SetInterruptHandler 0195                ??_INTERRUPT_InterruptManager 0072  
                  __size_of_TMR1_StartTimer 0003                              __size_of_setup 0010  
                                  _LATCbits 010E                                   clear_ram0 0189  
                                  _PIE0bits 0090                                    _PIE1bits 0091  
                  __size_of_TMR1_WriteTimer 0011         __size_of_INTERRUPT_InterruptManager 0024  
                                  _PIR0bits 0010                                    _PIR1bits 0011  
         __size_of_PatternCycleInputChanged 002D                   ?_PatternCycleInputChanged 0070  
                                  _TMR1_ISR 0151                           ??_PIN_MANAGER_IOC 0070  
                         ??_TMR1_Initialize 0074                                    _SetLight 0038  
                   ??_OSCILLATOR_Initialize 0072                    _TMR1_SetInterruptHandler 018F  
                     _TMR1_InterruptHandler 0032                     _IOCCF0_InterruptHandler 0034  
                                  __ptext10 0097                                    __ptext11 0195  
                                  __ptext12 016F                                    __ptext13 006A  
                                _T1GCONbits 001C                                    __ptext15 0151  
                                  __ptext16 0120                                    __ptext17 0178  
                                  __ptext18 0160                                    __ptext19 01A2  
              ??_IOCCF0_SetInterruptHandler 0074                           ??_TMR1_StartTimer 0072  
                                _IOCCF0_ISR 0160                                    _cur_hsec 002C  
                             __size_of_main 0026                                    int$flags 007E  
        __end_of_INTERRUPT_InterruptManager 0028                  _INTERRUPT_InterruptManager 0004  
                         ??_TMR1_WriteTimer 0072         __size_of_IOCCF0_SetInterruptHandler 0006  
                                _INTCONbits 000B                     __size_of_WDT_Initialize 0004  
                                  intlevel1 0000                     ?_PIN_MANAGER_Initialize 0070  
                         __CFG_CLKOUTEN$OFF 0000            __end_of_PatternCycleInputChanged 0097  
                               ?_IOCCF0_ISR 0070              __end_of_PIN_MANAGER_Initialize 00C1  
                           _PIN_MANAGER_IOC 0178                             _TMR1_Initialize 0109  
